ARM GAS  /tmp/cc0wYaIi.s 			page 1


   1              		.syntax unified
   2              		.cpu cortex-m3
   3              		.fpu softvfp
   4              		.eabi_attribute 20, 1
   5              		.eabi_attribute 21, 1
   6              		.eabi_attribute 23, 3
   7              		.eabi_attribute 24, 1
   8              		.eabi_attribute 25, 1
   9              		.eabi_attribute 26, 1
  10              		.eabi_attribute 30, 1
  11              		.eabi_attribute 34, 1
  12              		.eabi_attribute 18, 4
  13              		.thumb
  14              		.file	"stm32f1xx_hal_adc_ex.c"
  15              		.text
  16              	.Ltext0:
  17              		.cfi_sections	.debug_frame
  18              		.section	.text.HAL_ADCEx_Calibration_Start,"ax",%progbits
  19              		.align	2
  20              		.global	HAL_ADCEx_Calibration_Start
  21              		.thumb
  22              		.thumb_func
  24              	HAL_ADCEx_Calibration_Start:
  25              	.LFB63:
  26              		.file 1 "Drivers/STM32F1xx_HAL_Driver/Src/stm32f1xx_hal_adc_ex.c"
   1:Drivers/STM32F1xx_HAL_Driver/Src/stm32f1xx_hal_adc_ex.c **** /**
   2:Drivers/STM32F1xx_HAL_Driver/Src/stm32f1xx_hal_adc_ex.c ****   ******************************************************************************
   3:Drivers/STM32F1xx_HAL_Driver/Src/stm32f1xx_hal_adc_ex.c ****   * @file    stm32f1xx_hal_adc_ex.c
   4:Drivers/STM32F1xx_HAL_Driver/Src/stm32f1xx_hal_adc_ex.c ****   * @author  MCD Application Team
   5:Drivers/STM32F1xx_HAL_Driver/Src/stm32f1xx_hal_adc_ex.c ****   * @brief   This file provides firmware functions to manage the following 
   6:Drivers/STM32F1xx_HAL_Driver/Src/stm32f1xx_hal_adc_ex.c ****   *          functionalities of the Analog to Digital Convertor (ADC)
   7:Drivers/STM32F1xx_HAL_Driver/Src/stm32f1xx_hal_adc_ex.c ****   *          peripheral:
   8:Drivers/STM32F1xx_HAL_Driver/Src/stm32f1xx_hal_adc_ex.c ****   *           + Operation functions
   9:Drivers/STM32F1xx_HAL_Driver/Src/stm32f1xx_hal_adc_ex.c ****   *             ++ Start, stop, get result of conversions of injected
  10:Drivers/STM32F1xx_HAL_Driver/Src/stm32f1xx_hal_adc_ex.c ****   *                group, using 2 possible modes: polling, interruption.
  11:Drivers/STM32F1xx_HAL_Driver/Src/stm32f1xx_hal_adc_ex.c ****   *             ++ Multimode feature (available on devices with 2 ADCs or more)
  12:Drivers/STM32F1xx_HAL_Driver/Src/stm32f1xx_hal_adc_ex.c ****   *             ++ Calibration (ADC automatic self-calibration)
  13:Drivers/STM32F1xx_HAL_Driver/Src/stm32f1xx_hal_adc_ex.c ****   *           + Control functions
  14:Drivers/STM32F1xx_HAL_Driver/Src/stm32f1xx_hal_adc_ex.c ****   *             ++ Channels configuration on injected group
  15:Drivers/STM32F1xx_HAL_Driver/Src/stm32f1xx_hal_adc_ex.c ****   *          Other functions (generic functions) are available in file 
  16:Drivers/STM32F1xx_HAL_Driver/Src/stm32f1xx_hal_adc_ex.c ****   *          "stm32f1xx_hal_adc.c".
  17:Drivers/STM32F1xx_HAL_Driver/Src/stm32f1xx_hal_adc_ex.c ****   *
  18:Drivers/STM32F1xx_HAL_Driver/Src/stm32f1xx_hal_adc_ex.c ****   @verbatim
  19:Drivers/STM32F1xx_HAL_Driver/Src/stm32f1xx_hal_adc_ex.c ****   [..] 
  20:Drivers/STM32F1xx_HAL_Driver/Src/stm32f1xx_hal_adc_ex.c ****   (@) Sections "ADC peripheral features" and "How to use this driver" are
  21:Drivers/STM32F1xx_HAL_Driver/Src/stm32f1xx_hal_adc_ex.c ****       available in file of generic functions "stm32f1xx_hal_adc.c".
  22:Drivers/STM32F1xx_HAL_Driver/Src/stm32f1xx_hal_adc_ex.c ****   [..]
  23:Drivers/STM32F1xx_HAL_Driver/Src/stm32f1xx_hal_adc_ex.c ****   @endverbatim
  24:Drivers/STM32F1xx_HAL_Driver/Src/stm32f1xx_hal_adc_ex.c ****   ******************************************************************************
  25:Drivers/STM32F1xx_HAL_Driver/Src/stm32f1xx_hal_adc_ex.c ****   * @attention
  26:Drivers/STM32F1xx_HAL_Driver/Src/stm32f1xx_hal_adc_ex.c ****   *
  27:Drivers/STM32F1xx_HAL_Driver/Src/stm32f1xx_hal_adc_ex.c ****   * <h2><center>&copy; COPYRIGHT(c) 2016 STMicroelectronics</center></h2>
  28:Drivers/STM32F1xx_HAL_Driver/Src/stm32f1xx_hal_adc_ex.c ****   *
  29:Drivers/STM32F1xx_HAL_Driver/Src/stm32f1xx_hal_adc_ex.c ****   * Redistribution and use in source and binary forms, with or without modification,
  30:Drivers/STM32F1xx_HAL_Driver/Src/stm32f1xx_hal_adc_ex.c ****   * are permitted provided that the following conditions are met:
  31:Drivers/STM32F1xx_HAL_Driver/Src/stm32f1xx_hal_adc_ex.c ****   *   1. Redistributions of source code must retain the above copyright notice,
  32:Drivers/STM32F1xx_HAL_Driver/Src/stm32f1xx_hal_adc_ex.c ****   *      this list of conditions and the following disclaimer.
ARM GAS  /tmp/cc0wYaIi.s 			page 2


  33:Drivers/STM32F1xx_HAL_Driver/Src/stm32f1xx_hal_adc_ex.c ****   *   2. Redistributions in binary form must reproduce the above copyright notice,
  34:Drivers/STM32F1xx_HAL_Driver/Src/stm32f1xx_hal_adc_ex.c ****   *      this list of conditions and the following disclaimer in the documentation
  35:Drivers/STM32F1xx_HAL_Driver/Src/stm32f1xx_hal_adc_ex.c ****   *      and/or other materials provided with the distribution.
  36:Drivers/STM32F1xx_HAL_Driver/Src/stm32f1xx_hal_adc_ex.c ****   *   3. Neither the name of STMicroelectronics nor the names of its contributors
  37:Drivers/STM32F1xx_HAL_Driver/Src/stm32f1xx_hal_adc_ex.c ****   *      may be used to endorse or promote products derived from this software
  38:Drivers/STM32F1xx_HAL_Driver/Src/stm32f1xx_hal_adc_ex.c ****   *      without specific prior written permission.
  39:Drivers/STM32F1xx_HAL_Driver/Src/stm32f1xx_hal_adc_ex.c ****   *
  40:Drivers/STM32F1xx_HAL_Driver/Src/stm32f1xx_hal_adc_ex.c ****   * THIS SOFTWARE IS PROVIDED BY THE COPYRIGHT HOLDERS AND CONTRIBUTORS "AS IS"
  41:Drivers/STM32F1xx_HAL_Driver/Src/stm32f1xx_hal_adc_ex.c ****   * AND ANY EXPRESS OR IMPLIED WARRANTIES, INCLUDING, BUT NOT LIMITED TO, THE
  42:Drivers/STM32F1xx_HAL_Driver/Src/stm32f1xx_hal_adc_ex.c ****   * IMPLIED WARRANTIES OF MERCHANTABILITY AND FITNESS FOR A PARTICULAR PURPOSE ARE
  43:Drivers/STM32F1xx_HAL_Driver/Src/stm32f1xx_hal_adc_ex.c ****   * DISCLAIMED. IN NO EVENT SHALL THE COPYRIGHT HOLDER OR CONTRIBUTORS BE LIABLE
  44:Drivers/STM32F1xx_HAL_Driver/Src/stm32f1xx_hal_adc_ex.c ****   * FOR ANY DIRECT, INDIRECT, INCIDENTAL, SPECIAL, EXEMPLARY, OR CONSEQUENTIAL
  45:Drivers/STM32F1xx_HAL_Driver/Src/stm32f1xx_hal_adc_ex.c ****   * DAMAGES (INCLUDING, BUT NOT LIMITED TO, PROCUREMENT OF SUBSTITUTE GOODS OR
  46:Drivers/STM32F1xx_HAL_Driver/Src/stm32f1xx_hal_adc_ex.c ****   * SERVICES; LOSS OF USE, DATA, OR PROFITS; OR BUSINESS INTERRUPTION) HOWEVER
  47:Drivers/STM32F1xx_HAL_Driver/Src/stm32f1xx_hal_adc_ex.c ****   * CAUSED AND ON ANY THEORY OF LIABILITY, WHETHER IN CONTRACT, STRICT LIABILITY,
  48:Drivers/STM32F1xx_HAL_Driver/Src/stm32f1xx_hal_adc_ex.c ****   * OR TORT (INCLUDING NEGLIGENCE OR OTHERWISE) ARISING IN ANY WAY OUT OF THE USE
  49:Drivers/STM32F1xx_HAL_Driver/Src/stm32f1xx_hal_adc_ex.c ****   * OF THIS SOFTWARE, EVEN IF ADVISED OF THE POSSIBILITY OF SUCH DAMAGE.
  50:Drivers/STM32F1xx_HAL_Driver/Src/stm32f1xx_hal_adc_ex.c ****   *
  51:Drivers/STM32F1xx_HAL_Driver/Src/stm32f1xx_hal_adc_ex.c ****   ******************************************************************************  
  52:Drivers/STM32F1xx_HAL_Driver/Src/stm32f1xx_hal_adc_ex.c ****   */
  53:Drivers/STM32F1xx_HAL_Driver/Src/stm32f1xx_hal_adc_ex.c **** 
  54:Drivers/STM32F1xx_HAL_Driver/Src/stm32f1xx_hal_adc_ex.c **** /* Includes ------------------------------------------------------------------*/
  55:Drivers/STM32F1xx_HAL_Driver/Src/stm32f1xx_hal_adc_ex.c **** #include "stm32f1xx_hal.h"
  56:Drivers/STM32F1xx_HAL_Driver/Src/stm32f1xx_hal_adc_ex.c **** 
  57:Drivers/STM32F1xx_HAL_Driver/Src/stm32f1xx_hal_adc_ex.c **** /** @addtogroup STM32F1xx_HAL_Driver
  58:Drivers/STM32F1xx_HAL_Driver/Src/stm32f1xx_hal_adc_ex.c ****   * @{
  59:Drivers/STM32F1xx_HAL_Driver/Src/stm32f1xx_hal_adc_ex.c ****   */
  60:Drivers/STM32F1xx_HAL_Driver/Src/stm32f1xx_hal_adc_ex.c **** 
  61:Drivers/STM32F1xx_HAL_Driver/Src/stm32f1xx_hal_adc_ex.c **** /** @defgroup ADCEx ADCEx
  62:Drivers/STM32F1xx_HAL_Driver/Src/stm32f1xx_hal_adc_ex.c ****   * @brief ADC Extension HAL module driver
  63:Drivers/STM32F1xx_HAL_Driver/Src/stm32f1xx_hal_adc_ex.c ****   * @{
  64:Drivers/STM32F1xx_HAL_Driver/Src/stm32f1xx_hal_adc_ex.c ****   */
  65:Drivers/STM32F1xx_HAL_Driver/Src/stm32f1xx_hal_adc_ex.c **** 
  66:Drivers/STM32F1xx_HAL_Driver/Src/stm32f1xx_hal_adc_ex.c **** #ifdef HAL_ADC_MODULE_ENABLED
  67:Drivers/STM32F1xx_HAL_Driver/Src/stm32f1xx_hal_adc_ex.c **** 
  68:Drivers/STM32F1xx_HAL_Driver/Src/stm32f1xx_hal_adc_ex.c **** /* Private typedef -----------------------------------------------------------*/
  69:Drivers/STM32F1xx_HAL_Driver/Src/stm32f1xx_hal_adc_ex.c **** /* Private define ------------------------------------------------------------*/
  70:Drivers/STM32F1xx_HAL_Driver/Src/stm32f1xx_hal_adc_ex.c **** /** @defgroup ADCEx_Private_Constants ADCEx Private Constants
  71:Drivers/STM32F1xx_HAL_Driver/Src/stm32f1xx_hal_adc_ex.c ****   * @{
  72:Drivers/STM32F1xx_HAL_Driver/Src/stm32f1xx_hal_adc_ex.c ****   */
  73:Drivers/STM32F1xx_HAL_Driver/Src/stm32f1xx_hal_adc_ex.c **** 
  74:Drivers/STM32F1xx_HAL_Driver/Src/stm32f1xx_hal_adc_ex.c ****   /* Delay for ADC calibration:                                               */
  75:Drivers/STM32F1xx_HAL_Driver/Src/stm32f1xx_hal_adc_ex.c ****   /* Hardware prerequisite before starting a calibration: the ADC must have   */
  76:Drivers/STM32F1xx_HAL_Driver/Src/stm32f1xx_hal_adc_ex.c ****   /* been in power-on state for at least two ADC clock cycles.                */
  77:Drivers/STM32F1xx_HAL_Driver/Src/stm32f1xx_hal_adc_ex.c ****   /* Unit: ADC clock cycles                                                   */
  78:Drivers/STM32F1xx_HAL_Driver/Src/stm32f1xx_hal_adc_ex.c ****   #define ADC_PRECALIBRATION_DELAY_ADCCLOCKCYCLES       2U
  79:Drivers/STM32F1xx_HAL_Driver/Src/stm32f1xx_hal_adc_ex.c **** 
  80:Drivers/STM32F1xx_HAL_Driver/Src/stm32f1xx_hal_adc_ex.c ****   /* Timeout value for ADC calibration                                        */
  81:Drivers/STM32F1xx_HAL_Driver/Src/stm32f1xx_hal_adc_ex.c ****   /* Value defined to be higher than worst cases: low clocks freq,            */
  82:Drivers/STM32F1xx_HAL_Driver/Src/stm32f1xx_hal_adc_ex.c ****   /* maximum prescaler.                                                       */
  83:Drivers/STM32F1xx_HAL_Driver/Src/stm32f1xx_hal_adc_ex.c ****   /* Ex of profile low frequency : Clock source at 0.1 MHz, ADC clock         */
  84:Drivers/STM32F1xx_HAL_Driver/Src/stm32f1xx_hal_adc_ex.c ****   /* prescaler 4, sampling time 12.5 ADC clock cycles, resolution 12 bits.    */
  85:Drivers/STM32F1xx_HAL_Driver/Src/stm32f1xx_hal_adc_ex.c ****   /* Unit: ms                                                                 */
  86:Drivers/STM32F1xx_HAL_Driver/Src/stm32f1xx_hal_adc_ex.c ****   #define ADC_CALIBRATION_TIMEOUT          10U
  87:Drivers/STM32F1xx_HAL_Driver/Src/stm32f1xx_hal_adc_ex.c **** 
  88:Drivers/STM32F1xx_HAL_Driver/Src/stm32f1xx_hal_adc_ex.c ****   /* Delay for temperature sensor stabilization time.                         */
  89:Drivers/STM32F1xx_HAL_Driver/Src/stm32f1xx_hal_adc_ex.c ****   /* Maximum delay is 10us (refer to device datasheet, parameter tSTART).     */
ARM GAS  /tmp/cc0wYaIi.s 			page 3


  90:Drivers/STM32F1xx_HAL_Driver/Src/stm32f1xx_hal_adc_ex.c ****   /* Unit: us                                                                 */
  91:Drivers/STM32F1xx_HAL_Driver/Src/stm32f1xx_hal_adc_ex.c ****   #define ADC_TEMPSENSOR_DELAY_US         10U
  92:Drivers/STM32F1xx_HAL_Driver/Src/stm32f1xx_hal_adc_ex.c **** 
  93:Drivers/STM32F1xx_HAL_Driver/Src/stm32f1xx_hal_adc_ex.c **** /**
  94:Drivers/STM32F1xx_HAL_Driver/Src/stm32f1xx_hal_adc_ex.c ****   * @}
  95:Drivers/STM32F1xx_HAL_Driver/Src/stm32f1xx_hal_adc_ex.c ****   */
  96:Drivers/STM32F1xx_HAL_Driver/Src/stm32f1xx_hal_adc_ex.c **** 
  97:Drivers/STM32F1xx_HAL_Driver/Src/stm32f1xx_hal_adc_ex.c **** /* Private macro -------------------------------------------------------------*/
  98:Drivers/STM32F1xx_HAL_Driver/Src/stm32f1xx_hal_adc_ex.c **** /* Private variables ---------------------------------------------------------*/
  99:Drivers/STM32F1xx_HAL_Driver/Src/stm32f1xx_hal_adc_ex.c **** /* Private function prototypes -----------------------------------------------*/
 100:Drivers/STM32F1xx_HAL_Driver/Src/stm32f1xx_hal_adc_ex.c **** /* Private functions ---------------------------------------------------------*/
 101:Drivers/STM32F1xx_HAL_Driver/Src/stm32f1xx_hal_adc_ex.c **** 
 102:Drivers/STM32F1xx_HAL_Driver/Src/stm32f1xx_hal_adc_ex.c **** /** @defgroup ADCEx_Exported_Functions ADCEx Exported Functions
 103:Drivers/STM32F1xx_HAL_Driver/Src/stm32f1xx_hal_adc_ex.c ****   * @{
 104:Drivers/STM32F1xx_HAL_Driver/Src/stm32f1xx_hal_adc_ex.c ****   */
 105:Drivers/STM32F1xx_HAL_Driver/Src/stm32f1xx_hal_adc_ex.c **** 
 106:Drivers/STM32F1xx_HAL_Driver/Src/stm32f1xx_hal_adc_ex.c **** /** @defgroup ADCEx_Exported_Functions_Group1 Extended Extended IO operation functions
 107:Drivers/STM32F1xx_HAL_Driver/Src/stm32f1xx_hal_adc_ex.c ****  *  @brief    Extended Extended Input and Output operation functions
 108:Drivers/STM32F1xx_HAL_Driver/Src/stm32f1xx_hal_adc_ex.c ****  *
 109:Drivers/STM32F1xx_HAL_Driver/Src/stm32f1xx_hal_adc_ex.c **** @verbatim    
 110:Drivers/STM32F1xx_HAL_Driver/Src/stm32f1xx_hal_adc_ex.c ****  ===============================================================================
 111:Drivers/STM32F1xx_HAL_Driver/Src/stm32f1xx_hal_adc_ex.c ****                       ##### IO operation functions #####
 112:Drivers/STM32F1xx_HAL_Driver/Src/stm32f1xx_hal_adc_ex.c ****  ===============================================================================
 113:Drivers/STM32F1xx_HAL_Driver/Src/stm32f1xx_hal_adc_ex.c ****     [..]  This section provides functions allowing to:
 114:Drivers/STM32F1xx_HAL_Driver/Src/stm32f1xx_hal_adc_ex.c ****       (+) Start conversion of injected group.
 115:Drivers/STM32F1xx_HAL_Driver/Src/stm32f1xx_hal_adc_ex.c ****       (+) Stop conversion of injected group.
 116:Drivers/STM32F1xx_HAL_Driver/Src/stm32f1xx_hal_adc_ex.c ****       (+) Poll for conversion complete on injected group.
 117:Drivers/STM32F1xx_HAL_Driver/Src/stm32f1xx_hal_adc_ex.c ****       (+) Get result of injected channel conversion.
 118:Drivers/STM32F1xx_HAL_Driver/Src/stm32f1xx_hal_adc_ex.c ****       (+) Start conversion of injected group and enable interruptions.
 119:Drivers/STM32F1xx_HAL_Driver/Src/stm32f1xx_hal_adc_ex.c ****       (+) Stop conversion of injected group and disable interruptions.
 120:Drivers/STM32F1xx_HAL_Driver/Src/stm32f1xx_hal_adc_ex.c **** 
 121:Drivers/STM32F1xx_HAL_Driver/Src/stm32f1xx_hal_adc_ex.c ****       (+) Start multimode and enable DMA transfer.
 122:Drivers/STM32F1xx_HAL_Driver/Src/stm32f1xx_hal_adc_ex.c ****       (+) Stop multimode and disable ADC DMA transfer.
 123:Drivers/STM32F1xx_HAL_Driver/Src/stm32f1xx_hal_adc_ex.c ****       (+) Get result of multimode conversion.
 124:Drivers/STM32F1xx_HAL_Driver/Src/stm32f1xx_hal_adc_ex.c **** 
 125:Drivers/STM32F1xx_HAL_Driver/Src/stm32f1xx_hal_adc_ex.c ****       (+) Perform the ADC self-calibration for single or differential ending.
 126:Drivers/STM32F1xx_HAL_Driver/Src/stm32f1xx_hal_adc_ex.c ****       (+) Get calibration factors for single or differential ending.
 127:Drivers/STM32F1xx_HAL_Driver/Src/stm32f1xx_hal_adc_ex.c ****       (+) Set calibration factors for single or differential ending.
 128:Drivers/STM32F1xx_HAL_Driver/Src/stm32f1xx_hal_adc_ex.c ****       
 129:Drivers/STM32F1xx_HAL_Driver/Src/stm32f1xx_hal_adc_ex.c **** @endverbatim
 130:Drivers/STM32F1xx_HAL_Driver/Src/stm32f1xx_hal_adc_ex.c ****   * @{
 131:Drivers/STM32F1xx_HAL_Driver/Src/stm32f1xx_hal_adc_ex.c ****   */
 132:Drivers/STM32F1xx_HAL_Driver/Src/stm32f1xx_hal_adc_ex.c **** 
 133:Drivers/STM32F1xx_HAL_Driver/Src/stm32f1xx_hal_adc_ex.c **** /**
 134:Drivers/STM32F1xx_HAL_Driver/Src/stm32f1xx_hal_adc_ex.c ****   * @brief  Perform an ADC automatic self-calibration
 135:Drivers/STM32F1xx_HAL_Driver/Src/stm32f1xx_hal_adc_ex.c ****   *         Calibration prerequisite: ADC must be disabled (execute this
 136:Drivers/STM32F1xx_HAL_Driver/Src/stm32f1xx_hal_adc_ex.c ****   *         function before HAL_ADC_Start() or after HAL_ADC_Stop() ).
 137:Drivers/STM32F1xx_HAL_Driver/Src/stm32f1xx_hal_adc_ex.c ****   *         During calibration process, ADC is enabled. ADC is let enabled at
 138:Drivers/STM32F1xx_HAL_Driver/Src/stm32f1xx_hal_adc_ex.c ****   *         the completion of this function.
 139:Drivers/STM32F1xx_HAL_Driver/Src/stm32f1xx_hal_adc_ex.c ****   * @param  hadc: ADC handle
 140:Drivers/STM32F1xx_HAL_Driver/Src/stm32f1xx_hal_adc_ex.c ****   * @retval HAL status
 141:Drivers/STM32F1xx_HAL_Driver/Src/stm32f1xx_hal_adc_ex.c ****   */
 142:Drivers/STM32F1xx_HAL_Driver/Src/stm32f1xx_hal_adc_ex.c **** HAL_StatusTypeDef HAL_ADCEx_Calibration_Start(ADC_HandleTypeDef* hadc)
 143:Drivers/STM32F1xx_HAL_Driver/Src/stm32f1xx_hal_adc_ex.c **** {
  27              		.loc 1 143 0
  28              		.cfi_startproc
  29              		@ args = 0, pretend = 0, frame = 8
ARM GAS  /tmp/cc0wYaIi.s 			page 4


  30              		@ frame_needed = 0, uses_anonymous_args = 0
  31              	.LVL0:
  32 0000 70B5     		push	{r4, r5, r6, lr}
  33              	.LCFI0:
  34              		.cfi_def_cfa_offset 16
  35              		.cfi_offset 4, -16
  36              		.cfi_offset 5, -12
  37              		.cfi_offset 6, -8
  38              		.cfi_offset 14, -4
  39 0002 82B0     		sub	sp, sp, #8
  40              	.LCFI1:
  41              		.cfi_def_cfa_offset 24
  42              	.LVL1:
 144:Drivers/STM32F1xx_HAL_Driver/Src/stm32f1xx_hal_adc_ex.c ****   HAL_StatusTypeDef tmp_hal_status = HAL_OK;
 145:Drivers/STM32F1xx_HAL_Driver/Src/stm32f1xx_hal_adc_ex.c ****   uint32_t tickstart;
 146:Drivers/STM32F1xx_HAL_Driver/Src/stm32f1xx_hal_adc_ex.c ****   __IO uint32_t wait_loop_index = 0U;
  43              		.loc 1 146 0
  44 0004 0023     		movs	r3, #0
  45 0006 0193     		str	r3, [sp, #4]
 147:Drivers/STM32F1xx_HAL_Driver/Src/stm32f1xx_hal_adc_ex.c ****   
 148:Drivers/STM32F1xx_HAL_Driver/Src/stm32f1xx_hal_adc_ex.c ****   /* Check the parameters */
 149:Drivers/STM32F1xx_HAL_Driver/Src/stm32f1xx_hal_adc_ex.c ****   assert_param(IS_ADC_ALL_INSTANCE(hadc->Instance));
 150:Drivers/STM32F1xx_HAL_Driver/Src/stm32f1xx_hal_adc_ex.c **** 
 151:Drivers/STM32F1xx_HAL_Driver/Src/stm32f1xx_hal_adc_ex.c ****   /* Process locked */
 152:Drivers/STM32F1xx_HAL_Driver/Src/stm32f1xx_hal_adc_ex.c ****   __HAL_LOCK(hadc);
  46              		.loc 1 152 0
  47 0008 90F82430 		ldrb	r3, [r0, #36]	@ zero_extendqisi2
  48 000c 012B     		cmp	r3, #1
  49 000e 69D0     		beq	.L10
  50 0010 0446     		mov	r4, r0
  51              		.loc 1 152 0 is_stmt 0 discriminator 2
  52 0012 0123     		movs	r3, #1
  53 0014 80F82430 		strb	r3, [r0, #36]
 153:Drivers/STM32F1xx_HAL_Driver/Src/stm32f1xx_hal_adc_ex.c ****     
 154:Drivers/STM32F1xx_HAL_Driver/Src/stm32f1xx_hal_adc_ex.c ****   /* 1. Calibration prerequisite:                                             */
 155:Drivers/STM32F1xx_HAL_Driver/Src/stm32f1xx_hal_adc_ex.c ****   /*    - ADC must be disabled for at least two ADC clock cycles in disable   */
 156:Drivers/STM32F1xx_HAL_Driver/Src/stm32f1xx_hal_adc_ex.c ****   /*      mode before ADC enable                                              */
 157:Drivers/STM32F1xx_HAL_Driver/Src/stm32f1xx_hal_adc_ex.c ****   /* Stop potential conversion on going, on regular and injected groups       */
 158:Drivers/STM32F1xx_HAL_Driver/Src/stm32f1xx_hal_adc_ex.c ****   /* Disable ADC peripheral */
 159:Drivers/STM32F1xx_HAL_Driver/Src/stm32f1xx_hal_adc_ex.c ****   tmp_hal_status = ADC_ConversionStop_Disable(hadc);
  54              		.loc 1 159 0 is_stmt 1 discriminator 2
  55 0018 FFF7FEFF 		bl	ADC_ConversionStop_Disable
  56              	.LVL2:
 160:Drivers/STM32F1xx_HAL_Driver/Src/stm32f1xx_hal_adc_ex.c ****   
 161:Drivers/STM32F1xx_HAL_Driver/Src/stm32f1xx_hal_adc_ex.c ****   /* Check if ADC is effectively disabled */
 162:Drivers/STM32F1xx_HAL_Driver/Src/stm32f1xx_hal_adc_ex.c ****   if (tmp_hal_status == HAL_OK)
  57              		.loc 1 162 0 discriminator 2
  58 001c 0546     		mov	r5, r0
  59 001e 0028     		cmp	r0, #0
  60 0020 5BD1     		bne	.L3
 163:Drivers/STM32F1xx_HAL_Driver/Src/stm32f1xx_hal_adc_ex.c ****   {
 164:Drivers/STM32F1xx_HAL_Driver/Src/stm32f1xx_hal_adc_ex.c ****     /* Set ADC state */
 165:Drivers/STM32F1xx_HAL_Driver/Src/stm32f1xx_hal_adc_ex.c ****     ADC_STATE_CLR_SET(hadc->State,
  61              		.loc 1 165 0
  62 0022 A36A     		ldr	r3, [r4, #40]
  63 0024 23F48853 		bic	r3, r3, #4352
  64 0028 23F00203 		bic	r3, r3, #2
ARM GAS  /tmp/cc0wYaIi.s 			page 5


  65 002c 43F00203 		orr	r3, r3, #2
  66 0030 A362     		str	r3, [r4, #40]
 166:Drivers/STM32F1xx_HAL_Driver/Src/stm32f1xx_hal_adc_ex.c ****                       HAL_ADC_STATE_REG_BUSY | HAL_ADC_STATE_INJ_BUSY,
 167:Drivers/STM32F1xx_HAL_Driver/Src/stm32f1xx_hal_adc_ex.c ****                       HAL_ADC_STATE_BUSY_INTERNAL);
 168:Drivers/STM32F1xx_HAL_Driver/Src/stm32f1xx_hal_adc_ex.c ****     
 169:Drivers/STM32F1xx_HAL_Driver/Src/stm32f1xx_hal_adc_ex.c ****     /* Hardware prerequisite: delay before starting the calibration.          */
 170:Drivers/STM32F1xx_HAL_Driver/Src/stm32f1xx_hal_adc_ex.c ****     /*  - Computation of CPU clock cycles corresponding to ADC clock cycles.  */
 171:Drivers/STM32F1xx_HAL_Driver/Src/stm32f1xx_hal_adc_ex.c ****     /*  - Wait for the expected ADC clock cycles delay */
 172:Drivers/STM32F1xx_HAL_Driver/Src/stm32f1xx_hal_adc_ex.c ****     wait_loop_index = ((SystemCoreClock
 173:Drivers/STM32F1xx_HAL_Driver/Src/stm32f1xx_hal_adc_ex.c ****                         / HAL_RCCEx_GetPeriphCLKFreq(RCC_PERIPHCLK_ADC))
  67              		.loc 1 173 0
  68 0032 2E4B     		ldr	r3, .L12
  69 0034 1E68     		ldr	r6, [r3]
  70 0036 0220     		movs	r0, #2
  71              	.LVL3:
  72 0038 FFF7FEFF 		bl	HAL_RCCEx_GetPeriphCLKFreq
  73              	.LVL4:
  74 003c B6FBF0F0 		udiv	r0, r6, r0
 174:Drivers/STM32F1xx_HAL_Driver/Src/stm32f1xx_hal_adc_ex.c ****                        * ADC_PRECALIBRATION_DELAY_ADCCLOCKCYCLES        );
  75              		.loc 1 174 0
  76 0040 4000     		lsls	r0, r0, #1
 172:Drivers/STM32F1xx_HAL_Driver/Src/stm32f1xx_hal_adc_ex.c ****                         / HAL_RCCEx_GetPeriphCLKFreq(RCC_PERIPHCLK_ADC))
  77              		.loc 1 172 0
  78 0042 0190     		str	r0, [sp, #4]
 175:Drivers/STM32F1xx_HAL_Driver/Src/stm32f1xx_hal_adc_ex.c **** 
 176:Drivers/STM32F1xx_HAL_Driver/Src/stm32f1xx_hal_adc_ex.c ****     while(wait_loop_index != 0U)
  79              		.loc 1 176 0
  80 0044 02E0     		b	.L4
  81              	.L5:
 177:Drivers/STM32F1xx_HAL_Driver/Src/stm32f1xx_hal_adc_ex.c ****     {
 178:Drivers/STM32F1xx_HAL_Driver/Src/stm32f1xx_hal_adc_ex.c ****       wait_loop_index--;
  82              		.loc 1 178 0
  83 0046 019B     		ldr	r3, [sp, #4]
  84 0048 013B     		subs	r3, r3, #1
  85 004a 0193     		str	r3, [sp, #4]
  86              	.L4:
 176:Drivers/STM32F1xx_HAL_Driver/Src/stm32f1xx_hal_adc_ex.c ****     {
  87              		.loc 1 176 0
  88 004c 019B     		ldr	r3, [sp, #4]
  89 004e 002B     		cmp	r3, #0
  90 0050 F9D1     		bne	.L5
 179:Drivers/STM32F1xx_HAL_Driver/Src/stm32f1xx_hal_adc_ex.c ****     }
 180:Drivers/STM32F1xx_HAL_Driver/Src/stm32f1xx_hal_adc_ex.c ****     
 181:Drivers/STM32F1xx_HAL_Driver/Src/stm32f1xx_hal_adc_ex.c ****     /* 2. Enable the ADC peripheral */
 182:Drivers/STM32F1xx_HAL_Driver/Src/stm32f1xx_hal_adc_ex.c ****     ADC_Enable(hadc);
  91              		.loc 1 182 0
  92 0052 2046     		mov	r0, r4
  93 0054 FFF7FEFF 		bl	ADC_Enable
  94              	.LVL5:
 183:Drivers/STM32F1xx_HAL_Driver/Src/stm32f1xx_hal_adc_ex.c ****     
 184:Drivers/STM32F1xx_HAL_Driver/Src/stm32f1xx_hal_adc_ex.c ****     /* 3. Resets ADC calibration registers */  
 185:Drivers/STM32F1xx_HAL_Driver/Src/stm32f1xx_hal_adc_ex.c ****     SET_BIT(hadc->Instance->CR2, ADC_CR2_RSTCAL);
  95              		.loc 1 185 0
  96 0058 2268     		ldr	r2, [r4]
  97 005a 9368     		ldr	r3, [r2, #8]
  98 005c 43F00803 		orr	r3, r3, #8
  99 0060 9360     		str	r3, [r2, #8]
ARM GAS  /tmp/cc0wYaIi.s 			page 6


 186:Drivers/STM32F1xx_HAL_Driver/Src/stm32f1xx_hal_adc_ex.c ****     
 187:Drivers/STM32F1xx_HAL_Driver/Src/stm32f1xx_hal_adc_ex.c ****     tickstart = HAL_GetTick();  
 100              		.loc 1 187 0
 101 0062 FFF7FEFF 		bl	HAL_GetTick
 102              	.LVL6:
 103 0066 0646     		mov	r6, r0
 104              	.LVL7:
 188:Drivers/STM32F1xx_HAL_Driver/Src/stm32f1xx_hal_adc_ex.c **** 
 189:Drivers/STM32F1xx_HAL_Driver/Src/stm32f1xx_hal_adc_ex.c ****     /* Wait for calibration reset completion */
 190:Drivers/STM32F1xx_HAL_Driver/Src/stm32f1xx_hal_adc_ex.c ****     while(HAL_IS_BIT_SET(hadc->Instance->CR2, ADC_CR2_RSTCAL))
 105              		.loc 1 190 0
 106 0068 0FE0     		b	.L6
 107              	.LVL8:
 108              	.L7:
 191:Drivers/STM32F1xx_HAL_Driver/Src/stm32f1xx_hal_adc_ex.c ****     {
 192:Drivers/STM32F1xx_HAL_Driver/Src/stm32f1xx_hal_adc_ex.c ****       if((HAL_GetTick() - tickstart) > ADC_CALIBRATION_TIMEOUT)
 109              		.loc 1 192 0
 110 006a FFF7FEFF 		bl	HAL_GetTick
 111              	.LVL9:
 112 006e 801B     		subs	r0, r0, r6
 113 0070 0A28     		cmp	r0, #10
 114 0072 0AD9     		bls	.L6
 193:Drivers/STM32F1xx_HAL_Driver/Src/stm32f1xx_hal_adc_ex.c ****       {
 194:Drivers/STM32F1xx_HAL_Driver/Src/stm32f1xx_hal_adc_ex.c ****         /* Update ADC state machine to error */
 195:Drivers/STM32F1xx_HAL_Driver/Src/stm32f1xx_hal_adc_ex.c ****         ADC_STATE_CLR_SET(hadc->State,
 115              		.loc 1 195 0
 116 0074 A36A     		ldr	r3, [r4, #40]
 117 0076 23F01203 		bic	r3, r3, #18
 118 007a 43F01003 		orr	r3, r3, #16
 119 007e A362     		str	r3, [r4, #40]
 196:Drivers/STM32F1xx_HAL_Driver/Src/stm32f1xx_hal_adc_ex.c ****                           HAL_ADC_STATE_BUSY_INTERNAL,
 197:Drivers/STM32F1xx_HAL_Driver/Src/stm32f1xx_hal_adc_ex.c ****                           HAL_ADC_STATE_ERROR_INTERNAL);
 198:Drivers/STM32F1xx_HAL_Driver/Src/stm32f1xx_hal_adc_ex.c ****         
 199:Drivers/STM32F1xx_HAL_Driver/Src/stm32f1xx_hal_adc_ex.c ****         /* Process unlocked */
 200:Drivers/STM32F1xx_HAL_Driver/Src/stm32f1xx_hal_adc_ex.c ****         __HAL_UNLOCK(hadc);
 120              		.loc 1 200 0
 121 0080 0023     		movs	r3, #0
 122 0082 84F82430 		strb	r3, [r4, #36]
 201:Drivers/STM32F1xx_HAL_Driver/Src/stm32f1xx_hal_adc_ex.c ****         
 202:Drivers/STM32F1xx_HAL_Driver/Src/stm32f1xx_hal_adc_ex.c ****         return HAL_ERROR;
 123              		.loc 1 202 0
 124 0086 0120     		movs	r0, #1
 125 0088 2DE0     		b	.L2
 126              	.L6:
 190:Drivers/STM32F1xx_HAL_Driver/Src/stm32f1xx_hal_adc_ex.c ****     {
 127              		.loc 1 190 0
 128 008a 2368     		ldr	r3, [r4]
 129 008c 9A68     		ldr	r2, [r3, #8]
 130 008e 12F0080F 		tst	r2, #8
 131 0092 EAD1     		bne	.L7
 203:Drivers/STM32F1xx_HAL_Driver/Src/stm32f1xx_hal_adc_ex.c ****       }
 204:Drivers/STM32F1xx_HAL_Driver/Src/stm32f1xx_hal_adc_ex.c ****     }
 205:Drivers/STM32F1xx_HAL_Driver/Src/stm32f1xx_hal_adc_ex.c ****     
 206:Drivers/STM32F1xx_HAL_Driver/Src/stm32f1xx_hal_adc_ex.c ****     
 207:Drivers/STM32F1xx_HAL_Driver/Src/stm32f1xx_hal_adc_ex.c ****     /* 4. Start ADC calibration */
 208:Drivers/STM32F1xx_HAL_Driver/Src/stm32f1xx_hal_adc_ex.c ****     SET_BIT(hadc->Instance->CR2, ADC_CR2_CAL);
 132              		.loc 1 208 0
ARM GAS  /tmp/cc0wYaIi.s 			page 7


 133 0094 9A68     		ldr	r2, [r3, #8]
 134 0096 42F00402 		orr	r2, r2, #4
 135 009a 9A60     		str	r2, [r3, #8]
 209:Drivers/STM32F1xx_HAL_Driver/Src/stm32f1xx_hal_adc_ex.c ****     
 210:Drivers/STM32F1xx_HAL_Driver/Src/stm32f1xx_hal_adc_ex.c ****     tickstart = HAL_GetTick();  
 136              		.loc 1 210 0
 137 009c FFF7FEFF 		bl	HAL_GetTick
 138              	.LVL10:
 139 00a0 0646     		mov	r6, r0
 140              	.LVL11:
 211:Drivers/STM32F1xx_HAL_Driver/Src/stm32f1xx_hal_adc_ex.c **** 
 212:Drivers/STM32F1xx_HAL_Driver/Src/stm32f1xx_hal_adc_ex.c ****     /* Wait for calibration completion */
 213:Drivers/STM32F1xx_HAL_Driver/Src/stm32f1xx_hal_adc_ex.c ****     while(HAL_IS_BIT_SET(hadc->Instance->CR2, ADC_CR2_CAL))
 141              		.loc 1 213 0
 142 00a2 0FE0     		b	.L8
 143              	.LVL12:
 144              	.L9:
 214:Drivers/STM32F1xx_HAL_Driver/Src/stm32f1xx_hal_adc_ex.c ****     {
 215:Drivers/STM32F1xx_HAL_Driver/Src/stm32f1xx_hal_adc_ex.c ****       if((HAL_GetTick() - tickstart) > ADC_CALIBRATION_TIMEOUT)
 145              		.loc 1 215 0
 146 00a4 FFF7FEFF 		bl	HAL_GetTick
 147              	.LVL13:
 148 00a8 801B     		subs	r0, r0, r6
 149 00aa 0A28     		cmp	r0, #10
 150 00ac 0AD9     		bls	.L8
 216:Drivers/STM32F1xx_HAL_Driver/Src/stm32f1xx_hal_adc_ex.c ****       {
 217:Drivers/STM32F1xx_HAL_Driver/Src/stm32f1xx_hal_adc_ex.c ****         /* Update ADC state machine to error */
 218:Drivers/STM32F1xx_HAL_Driver/Src/stm32f1xx_hal_adc_ex.c ****         ADC_STATE_CLR_SET(hadc->State,
 151              		.loc 1 218 0
 152 00ae A36A     		ldr	r3, [r4, #40]
 153 00b0 23F01203 		bic	r3, r3, #18
 154 00b4 43F01003 		orr	r3, r3, #16
 155 00b8 A362     		str	r3, [r4, #40]
 219:Drivers/STM32F1xx_HAL_Driver/Src/stm32f1xx_hal_adc_ex.c ****                           HAL_ADC_STATE_BUSY_INTERNAL,
 220:Drivers/STM32F1xx_HAL_Driver/Src/stm32f1xx_hal_adc_ex.c ****                           HAL_ADC_STATE_ERROR_INTERNAL);
 221:Drivers/STM32F1xx_HAL_Driver/Src/stm32f1xx_hal_adc_ex.c ****         
 222:Drivers/STM32F1xx_HAL_Driver/Src/stm32f1xx_hal_adc_ex.c ****         /* Process unlocked */
 223:Drivers/STM32F1xx_HAL_Driver/Src/stm32f1xx_hal_adc_ex.c ****         __HAL_UNLOCK(hadc);
 156              		.loc 1 223 0
 157 00ba 0023     		movs	r3, #0
 158 00bc 84F82430 		strb	r3, [r4, #36]
 224:Drivers/STM32F1xx_HAL_Driver/Src/stm32f1xx_hal_adc_ex.c ****         
 225:Drivers/STM32F1xx_HAL_Driver/Src/stm32f1xx_hal_adc_ex.c ****         return HAL_ERROR;
 159              		.loc 1 225 0
 160 00c0 0120     		movs	r0, #1
 161 00c2 10E0     		b	.L2
 162              	.L8:
 213:Drivers/STM32F1xx_HAL_Driver/Src/stm32f1xx_hal_adc_ex.c ****     {
 163              		.loc 1 213 0
 164 00c4 2368     		ldr	r3, [r4]
 165 00c6 9B68     		ldr	r3, [r3, #8]
 166 00c8 13F0040F 		tst	r3, #4
 167 00cc EAD1     		bne	.L9
 226:Drivers/STM32F1xx_HAL_Driver/Src/stm32f1xx_hal_adc_ex.c ****       }
 227:Drivers/STM32F1xx_HAL_Driver/Src/stm32f1xx_hal_adc_ex.c ****     }
 228:Drivers/STM32F1xx_HAL_Driver/Src/stm32f1xx_hal_adc_ex.c ****     
 229:Drivers/STM32F1xx_HAL_Driver/Src/stm32f1xx_hal_adc_ex.c ****     /* Set ADC state */
ARM GAS  /tmp/cc0wYaIi.s 			page 8


 230:Drivers/STM32F1xx_HAL_Driver/Src/stm32f1xx_hal_adc_ex.c ****     ADC_STATE_CLR_SET(hadc->State,
 168              		.loc 1 230 0
 169 00ce A36A     		ldr	r3, [r4, #40]
 170 00d0 23F00303 		bic	r3, r3, #3
 171 00d4 43F00103 		orr	r3, r3, #1
 172 00d8 A362     		str	r3, [r4, #40]
 173              	.LVL14:
 174              	.L3:
 231:Drivers/STM32F1xx_HAL_Driver/Src/stm32f1xx_hal_adc_ex.c ****                       HAL_ADC_STATE_BUSY_INTERNAL,
 232:Drivers/STM32F1xx_HAL_Driver/Src/stm32f1xx_hal_adc_ex.c ****                       HAL_ADC_STATE_READY);
 233:Drivers/STM32F1xx_HAL_Driver/Src/stm32f1xx_hal_adc_ex.c ****   }
 234:Drivers/STM32F1xx_HAL_Driver/Src/stm32f1xx_hal_adc_ex.c ****   
 235:Drivers/STM32F1xx_HAL_Driver/Src/stm32f1xx_hal_adc_ex.c ****   /* Process unlocked */
 236:Drivers/STM32F1xx_HAL_Driver/Src/stm32f1xx_hal_adc_ex.c ****   __HAL_UNLOCK(hadc);
 175              		.loc 1 236 0
 176 00da 0023     		movs	r3, #0
 177 00dc 84F82430 		strb	r3, [r4, #36]
 237:Drivers/STM32F1xx_HAL_Driver/Src/stm32f1xx_hal_adc_ex.c ****   
 238:Drivers/STM32F1xx_HAL_Driver/Src/stm32f1xx_hal_adc_ex.c ****   /* Return function status */
 239:Drivers/STM32F1xx_HAL_Driver/Src/stm32f1xx_hal_adc_ex.c ****   return tmp_hal_status;
 178              		.loc 1 239 0
 179 00e0 2846     		mov	r0, r5
 180 00e2 00E0     		b	.L2
 181              	.LVL15:
 182              	.L10:
 152:Drivers/STM32F1xx_HAL_Driver/Src/stm32f1xx_hal_adc_ex.c ****     
 183              		.loc 1 152 0
 184 00e4 0220     		movs	r0, #2
 185              	.LVL16:
 186              	.L2:
 240:Drivers/STM32F1xx_HAL_Driver/Src/stm32f1xx_hal_adc_ex.c **** }
 187              		.loc 1 240 0
 188 00e6 02B0     		add	sp, sp, #8
 189              	.LCFI2:
 190              		.cfi_def_cfa_offset 16
 191              		@ sp needed
 192 00e8 70BD     		pop	{r4, r5, r6, pc}
 193              	.L13:
 194 00ea 00BF     		.align	2
 195              	.L12:
 196 00ec 00000000 		.word	SystemCoreClock
 197              		.cfi_endproc
 198              	.LFE63:
 200              		.section	.text.HAL_ADCEx_InjectedStart,"ax",%progbits
 201              		.align	2
 202              		.global	HAL_ADCEx_InjectedStart
 203              		.thumb
 204              		.thumb_func
 206              	HAL_ADCEx_InjectedStart:
 207              	.LFB64:
 241:Drivers/STM32F1xx_HAL_Driver/Src/stm32f1xx_hal_adc_ex.c **** 
 242:Drivers/STM32F1xx_HAL_Driver/Src/stm32f1xx_hal_adc_ex.c **** /**
 243:Drivers/STM32F1xx_HAL_Driver/Src/stm32f1xx_hal_adc_ex.c ****   * @brief  Enables ADC, starts conversion of injected group.
 244:Drivers/STM32F1xx_HAL_Driver/Src/stm32f1xx_hal_adc_ex.c ****   *         Interruptions enabled in this function: None.
 245:Drivers/STM32F1xx_HAL_Driver/Src/stm32f1xx_hal_adc_ex.c ****   * @param  hadc: ADC handle
 246:Drivers/STM32F1xx_HAL_Driver/Src/stm32f1xx_hal_adc_ex.c ****   * @retval HAL status
 247:Drivers/STM32F1xx_HAL_Driver/Src/stm32f1xx_hal_adc_ex.c ****   */
ARM GAS  /tmp/cc0wYaIi.s 			page 9


 248:Drivers/STM32F1xx_HAL_Driver/Src/stm32f1xx_hal_adc_ex.c **** HAL_StatusTypeDef HAL_ADCEx_InjectedStart(ADC_HandleTypeDef* hadc)
 249:Drivers/STM32F1xx_HAL_Driver/Src/stm32f1xx_hal_adc_ex.c **** {
 208              		.loc 1 249 0
 209              		.cfi_startproc
 210              		@ args = 0, pretend = 0, frame = 0
 211              		@ frame_needed = 0, uses_anonymous_args = 0
 212              	.LVL17:
 250:Drivers/STM32F1xx_HAL_Driver/Src/stm32f1xx_hal_adc_ex.c ****   HAL_StatusTypeDef tmp_hal_status = HAL_OK;
 251:Drivers/STM32F1xx_HAL_Driver/Src/stm32f1xx_hal_adc_ex.c ****   
 252:Drivers/STM32F1xx_HAL_Driver/Src/stm32f1xx_hal_adc_ex.c ****   /* Check the parameters */
 253:Drivers/STM32F1xx_HAL_Driver/Src/stm32f1xx_hal_adc_ex.c ****   assert_param(IS_ADC_ALL_INSTANCE(hadc->Instance));
 254:Drivers/STM32F1xx_HAL_Driver/Src/stm32f1xx_hal_adc_ex.c ****   
 255:Drivers/STM32F1xx_HAL_Driver/Src/stm32f1xx_hal_adc_ex.c ****   /* Process locked */
 256:Drivers/STM32F1xx_HAL_Driver/Src/stm32f1xx_hal_adc_ex.c ****   __HAL_LOCK(hadc);
 213              		.loc 1 256 0
 214 0000 90F82430 		ldrb	r3, [r0, #36]	@ zero_extendqisi2
 215 0004 012B     		cmp	r3, #1
 216 0006 53D0     		beq	.L24
 249:Drivers/STM32F1xx_HAL_Driver/Src/stm32f1xx_hal_adc_ex.c ****   HAL_StatusTypeDef tmp_hal_status = HAL_OK;
 217              		.loc 1 249 0 discriminator 2
 218 0008 10B5     		push	{r4, lr}
 219              	.LCFI3:
 220              		.cfi_def_cfa_offset 8
 221              		.cfi_offset 4, -8
 222              		.cfi_offset 14, -4
 223 000a 0446     		mov	r4, r0
 224              		.loc 1 256 0 discriminator 2
 225 000c 0123     		movs	r3, #1
 226 000e 80F82430 		strb	r3, [r0, #36]
 257:Drivers/STM32F1xx_HAL_Driver/Src/stm32f1xx_hal_adc_ex.c ****     
 258:Drivers/STM32F1xx_HAL_Driver/Src/stm32f1xx_hal_adc_ex.c ****   /* Enable the ADC peripheral */
 259:Drivers/STM32F1xx_HAL_Driver/Src/stm32f1xx_hal_adc_ex.c ****   tmp_hal_status = ADC_Enable(hadc);
 227              		.loc 1 259 0 discriminator 2
 228 0012 FFF7FEFF 		bl	ADC_Enable
 229              	.LVL18:
 260:Drivers/STM32F1xx_HAL_Driver/Src/stm32f1xx_hal_adc_ex.c ****   
 261:Drivers/STM32F1xx_HAL_Driver/Src/stm32f1xx_hal_adc_ex.c ****   /* Start conversion if ADC is effectively enabled */
 262:Drivers/STM32F1xx_HAL_Driver/Src/stm32f1xx_hal_adc_ex.c ****   if (tmp_hal_status == HAL_OK)
 230              		.loc 1 262 0 discriminator 2
 231 0016 0346     		mov	r3, r0
 232 0018 0028     		cmp	r0, #0
 233 001a 44D1     		bne	.L16
 263:Drivers/STM32F1xx_HAL_Driver/Src/stm32f1xx_hal_adc_ex.c ****   {
 264:Drivers/STM32F1xx_HAL_Driver/Src/stm32f1xx_hal_adc_ex.c ****     /* Set ADC state                                                          */
 265:Drivers/STM32F1xx_HAL_Driver/Src/stm32f1xx_hal_adc_ex.c ****     /* - Clear state bitfield related to injected group conversion results    */
 266:Drivers/STM32F1xx_HAL_Driver/Src/stm32f1xx_hal_adc_ex.c ****     /* - Set state bitfield related to injected operation                     */
 267:Drivers/STM32F1xx_HAL_Driver/Src/stm32f1xx_hal_adc_ex.c ****     ADC_STATE_CLR_SET(hadc->State,
 234              		.loc 1 267 0
 235 001c A26A     		ldr	r2, [r4, #40]
 236 001e 22F44052 		bic	r2, r2, #12288
 237 0022 22F00102 		bic	r2, r2, #1
 238 0026 42F48052 		orr	r2, r2, #4096
 239 002a A262     		str	r2, [r4, #40]
 268:Drivers/STM32F1xx_HAL_Driver/Src/stm32f1xx_hal_adc_ex.c ****                       HAL_ADC_STATE_READY | HAL_ADC_STATE_INJ_EOC,
 269:Drivers/STM32F1xx_HAL_Driver/Src/stm32f1xx_hal_adc_ex.c ****                       HAL_ADC_STATE_INJ_BUSY);
 270:Drivers/STM32F1xx_HAL_Driver/Src/stm32f1xx_hal_adc_ex.c ****     
 271:Drivers/STM32F1xx_HAL_Driver/Src/stm32f1xx_hal_adc_ex.c ****     /* Case of independent mode or multimode (for devices with several ADCs): */
ARM GAS  /tmp/cc0wYaIi.s 			page 10


 272:Drivers/STM32F1xx_HAL_Driver/Src/stm32f1xx_hal_adc_ex.c ****     /* Set multimode state.                                                   */
 273:Drivers/STM32F1xx_HAL_Driver/Src/stm32f1xx_hal_adc_ex.c ****     if (ADC_NONMULTIMODE_OR_MULTIMODEMASTER(hadc))
 240              		.loc 1 273 0
 241 002c 2168     		ldr	r1, [r4]
 242 002e 214A     		ldr	r2, .L27
 243 0030 9142     		cmp	r1, r2
 244 0032 05D1     		bne	.L17
 245              		.loc 1 273 0 is_stmt 0 discriminator 1
 246 0034 A2F58062 		sub	r2, r2, #1024
 247 0038 5268     		ldr	r2, [r2, #4]
 248 003a 12F4702F 		tst	r2, #983040
 249 003e 04D1     		bne	.L18
 250              	.L17:
 274:Drivers/STM32F1xx_HAL_Driver/Src/stm32f1xx_hal_adc_ex.c ****     {
 275:Drivers/STM32F1xx_HAL_Driver/Src/stm32f1xx_hal_adc_ex.c ****       CLEAR_BIT(hadc->State, HAL_ADC_STATE_MULTIMODE_SLAVE);
 251              		.loc 1 275 0 is_stmt 1
 252 0040 A26A     		ldr	r2, [r4, #40]
 253 0042 22F48012 		bic	r2, r2, #1048576
 254 0046 A262     		str	r2, [r4, #40]
 255 0048 03E0     		b	.L19
 256              	.L18:
 276:Drivers/STM32F1xx_HAL_Driver/Src/stm32f1xx_hal_adc_ex.c ****     }
 277:Drivers/STM32F1xx_HAL_Driver/Src/stm32f1xx_hal_adc_ex.c ****     else
 278:Drivers/STM32F1xx_HAL_Driver/Src/stm32f1xx_hal_adc_ex.c ****     {
 279:Drivers/STM32F1xx_HAL_Driver/Src/stm32f1xx_hal_adc_ex.c ****       SET_BIT(hadc->State, HAL_ADC_STATE_MULTIMODE_SLAVE);
 257              		.loc 1 279 0
 258 004a A26A     		ldr	r2, [r4, #40]
 259 004c 42F48012 		orr	r2, r2, #1048576
 260 0050 A262     		str	r2, [r4, #40]
 261              	.L19:
 280:Drivers/STM32F1xx_HAL_Driver/Src/stm32f1xx_hal_adc_ex.c ****     }
 281:Drivers/STM32F1xx_HAL_Driver/Src/stm32f1xx_hal_adc_ex.c ****     
 282:Drivers/STM32F1xx_HAL_Driver/Src/stm32f1xx_hal_adc_ex.c ****     /* Check if a regular conversion is ongoing */
 283:Drivers/STM32F1xx_HAL_Driver/Src/stm32f1xx_hal_adc_ex.c ****     /* Note: On this device, there is no ADC error code fields related to     */
 284:Drivers/STM32F1xx_HAL_Driver/Src/stm32f1xx_hal_adc_ex.c ****     /*       conversions on group injected only. In case of conversion on     */
 285:Drivers/STM32F1xx_HAL_Driver/Src/stm32f1xx_hal_adc_ex.c ****     /*       going on group regular, no error code is reset.                  */
 286:Drivers/STM32F1xx_HAL_Driver/Src/stm32f1xx_hal_adc_ex.c ****     if (HAL_IS_BIT_CLR(hadc->State, HAL_ADC_STATE_REG_BUSY))
 262              		.loc 1 286 0
 263 0052 A26A     		ldr	r2, [r4, #40]
 264 0054 12F4807F 		tst	r2, #256
 265 0058 01D1     		bne	.L20
 287:Drivers/STM32F1xx_HAL_Driver/Src/stm32f1xx_hal_adc_ex.c ****     {
 288:Drivers/STM32F1xx_HAL_Driver/Src/stm32f1xx_hal_adc_ex.c ****       /* Reset ADC all error code fields */
 289:Drivers/STM32F1xx_HAL_Driver/Src/stm32f1xx_hal_adc_ex.c ****       ADC_CLEAR_ERRORCODE(hadc);
 266              		.loc 1 289 0
 267 005a 0022     		movs	r2, #0
 268 005c E262     		str	r2, [r4, #44]
 269              	.L20:
 290:Drivers/STM32F1xx_HAL_Driver/Src/stm32f1xx_hal_adc_ex.c ****     }
 291:Drivers/STM32F1xx_HAL_Driver/Src/stm32f1xx_hal_adc_ex.c ****     
 292:Drivers/STM32F1xx_HAL_Driver/Src/stm32f1xx_hal_adc_ex.c ****     /* Process unlocked */
 293:Drivers/STM32F1xx_HAL_Driver/Src/stm32f1xx_hal_adc_ex.c ****     /* Unlock before starting ADC conversions: in case of potential           */
 294:Drivers/STM32F1xx_HAL_Driver/Src/stm32f1xx_hal_adc_ex.c ****     /* interruption, to let the process to ADC IRQ Handler.                   */
 295:Drivers/STM32F1xx_HAL_Driver/Src/stm32f1xx_hal_adc_ex.c ****     __HAL_UNLOCK(hadc);
 270              		.loc 1 295 0
 271 005e 0022     		movs	r2, #0
 272 0060 84F82420 		strb	r2, [r4, #36]
ARM GAS  /tmp/cc0wYaIi.s 			page 11


 296:Drivers/STM32F1xx_HAL_Driver/Src/stm32f1xx_hal_adc_ex.c ****     
 297:Drivers/STM32F1xx_HAL_Driver/Src/stm32f1xx_hal_adc_ex.c ****     /* Clear injected group conversion flag */
 298:Drivers/STM32F1xx_HAL_Driver/Src/stm32f1xx_hal_adc_ex.c ****     /* (To ensure of no unknown state from potential previous ADC operations) */
 299:Drivers/STM32F1xx_HAL_Driver/Src/stm32f1xx_hal_adc_ex.c ****     __HAL_ADC_CLEAR_FLAG(hadc, ADC_FLAG_JEOC);
 273              		.loc 1 299 0
 274 0064 6FF00402 		mvn	r2, #4
 275 0068 0A60     		str	r2, [r1]
 300:Drivers/STM32F1xx_HAL_Driver/Src/stm32f1xx_hal_adc_ex.c ****         
 301:Drivers/STM32F1xx_HAL_Driver/Src/stm32f1xx_hal_adc_ex.c ****     /* Enable conversion of injected group.                                   */
 302:Drivers/STM32F1xx_HAL_Driver/Src/stm32f1xx_hal_adc_ex.c ****     /* If software start has been selected, conversion starts immediately.    */
 303:Drivers/STM32F1xx_HAL_Driver/Src/stm32f1xx_hal_adc_ex.c ****     /* If external trigger has been selected, conversion will start at next   */
 304:Drivers/STM32F1xx_HAL_Driver/Src/stm32f1xx_hal_adc_ex.c ****     /* trigger event.                                                         */
 305:Drivers/STM32F1xx_HAL_Driver/Src/stm32f1xx_hal_adc_ex.c ****     /* If automatic injected conversion is enabled, conversion will start     */
 306:Drivers/STM32F1xx_HAL_Driver/Src/stm32f1xx_hal_adc_ex.c ****     /* after next regular group conversion.                                   */
 307:Drivers/STM32F1xx_HAL_Driver/Src/stm32f1xx_hal_adc_ex.c ****     /* Case of multimode enabled (for devices with several ADCs): if ADC is   */
 308:Drivers/STM32F1xx_HAL_Driver/Src/stm32f1xx_hal_adc_ex.c ****     /* slave, ADC is enabled only (conversion is not started). If ADC is      */
 309:Drivers/STM32F1xx_HAL_Driver/Src/stm32f1xx_hal_adc_ex.c ****     /* master, ADC is enabled and conversion is started.                      */
 310:Drivers/STM32F1xx_HAL_Driver/Src/stm32f1xx_hal_adc_ex.c ****     if (HAL_IS_BIT_CLR(hadc->Instance->CR1, ADC_CR1_JAUTO))
 276              		.loc 1 310 0
 277 006a 2268     		ldr	r2, [r4]
 278 006c 5168     		ldr	r1, [r2, #4]
 279 006e 11F4806F 		tst	r1, #1024
 280 0072 1BD1     		bne	.L21
 311:Drivers/STM32F1xx_HAL_Driver/Src/stm32f1xx_hal_adc_ex.c ****     {
 312:Drivers/STM32F1xx_HAL_Driver/Src/stm32f1xx_hal_adc_ex.c ****       if (ADC_IS_SOFTWARE_START_INJECTED(hadc)     &&
 281              		.loc 1 312 0
 282 0074 9168     		ldr	r1, [r2, #8]
 283 0076 01F4E041 		and	r1, r1, #28672
 284 007a B1F5E04F 		cmp	r1, #28672
 285 007e 0DD1     		bne	.L22
 286              		.loc 1 312 0 is_stmt 0 discriminator 1
 287 0080 0C49     		ldr	r1, .L27
 288 0082 8A42     		cmp	r2, r1
 289 0084 05D1     		bne	.L23
 313:Drivers/STM32F1xx_HAL_Driver/Src/stm32f1xx_hal_adc_ex.c ****           ADC_NONMULTIMODE_OR_MULTIMODEMASTER(hadc)  )
 290              		.loc 1 313 0 is_stmt 1 discriminator 2
 291 0086 A1F58061 		sub	r1, r1, #1024
 292 008a 4968     		ldr	r1, [r1, #4]
 312:Drivers/STM32F1xx_HAL_Driver/Src/stm32f1xx_hal_adc_ex.c ****           ADC_NONMULTIMODE_OR_MULTIMODEMASTER(hadc)  )
 293              		.loc 1 312 0 discriminator 2
 294 008c 11F4702F 		tst	r1, #983040
 295 0090 04D1     		bne	.L22
 296              	.L23:
 314:Drivers/STM32F1xx_HAL_Driver/Src/stm32f1xx_hal_adc_ex.c ****       {
 315:Drivers/STM32F1xx_HAL_Driver/Src/stm32f1xx_hal_adc_ex.c ****         /* Start ADC conversion on injected group with SW start */
 316:Drivers/STM32F1xx_HAL_Driver/Src/stm32f1xx_hal_adc_ex.c ****         SET_BIT(hadc->Instance->CR2, (ADC_CR2_JSWSTART | ADC_CR2_JEXTTRIG));
 297              		.loc 1 316 0
 298 0092 9168     		ldr	r1, [r2, #8]
 299 0094 41F40211 		orr	r1, r1, #2129920
 300 0098 9160     		str	r1, [r2, #8]
 301 009a 07E0     		b	.L21
 302              	.L22:
 317:Drivers/STM32F1xx_HAL_Driver/Src/stm32f1xx_hal_adc_ex.c ****       }
 318:Drivers/STM32F1xx_HAL_Driver/Src/stm32f1xx_hal_adc_ex.c ****       else
 319:Drivers/STM32F1xx_HAL_Driver/Src/stm32f1xx_hal_adc_ex.c ****       {
 320:Drivers/STM32F1xx_HAL_Driver/Src/stm32f1xx_hal_adc_ex.c ****         /* Start ADC conversion on injected group with external trigger */
 321:Drivers/STM32F1xx_HAL_Driver/Src/stm32f1xx_hal_adc_ex.c ****         SET_BIT(hadc->Instance->CR2, ADC_CR2_JEXTTRIG);
ARM GAS  /tmp/cc0wYaIi.s 			page 12


 303              		.loc 1 321 0
 304 009c 9168     		ldr	r1, [r2, #8]
 305 009e 41F40041 		orr	r1, r1, #32768
 306 00a2 9160     		str	r1, [r2, #8]
 307 00a4 02E0     		b	.L21
 308              	.L16:
 322:Drivers/STM32F1xx_HAL_Driver/Src/stm32f1xx_hal_adc_ex.c ****       }
 323:Drivers/STM32F1xx_HAL_Driver/Src/stm32f1xx_hal_adc_ex.c ****     }
 324:Drivers/STM32F1xx_HAL_Driver/Src/stm32f1xx_hal_adc_ex.c ****   }
 325:Drivers/STM32F1xx_HAL_Driver/Src/stm32f1xx_hal_adc_ex.c ****   else
 326:Drivers/STM32F1xx_HAL_Driver/Src/stm32f1xx_hal_adc_ex.c ****   {
 327:Drivers/STM32F1xx_HAL_Driver/Src/stm32f1xx_hal_adc_ex.c ****     /* Process unlocked */
 328:Drivers/STM32F1xx_HAL_Driver/Src/stm32f1xx_hal_adc_ex.c ****     __HAL_UNLOCK(hadc);
 309              		.loc 1 328 0
 310 00a6 0022     		movs	r2, #0
 311 00a8 84F82420 		strb	r2, [r4, #36]
 312              	.L21:
 329:Drivers/STM32F1xx_HAL_Driver/Src/stm32f1xx_hal_adc_ex.c ****   }
 330:Drivers/STM32F1xx_HAL_Driver/Src/stm32f1xx_hal_adc_ex.c ****   
 331:Drivers/STM32F1xx_HAL_Driver/Src/stm32f1xx_hal_adc_ex.c ****   /* Return function status */
 332:Drivers/STM32F1xx_HAL_Driver/Src/stm32f1xx_hal_adc_ex.c ****   return tmp_hal_status;
 313              		.loc 1 332 0
 314 00ac 1846     		mov	r0, r3
 315              	.LVL19:
 316 00ae 10BD     		pop	{r4, pc}
 317              	.LVL20:
 318              	.L24:
 319              	.LCFI4:
 320              		.cfi_def_cfa_offset 0
 321              		.cfi_restore 4
 322              		.cfi_restore 14
 256:Drivers/STM32F1xx_HAL_Driver/Src/stm32f1xx_hal_adc_ex.c ****     
 323              		.loc 1 256 0
 324 00b0 0220     		movs	r0, #2
 325              	.LVL21:
 326 00b2 7047     		bx	lr
 327              	.L28:
 328              		.align	2
 329              	.L27:
 330 00b4 00280140 		.word	1073817600
 331              		.cfi_endproc
 332              	.LFE64:
 334              		.section	.text.HAL_ADCEx_InjectedStop,"ax",%progbits
 335              		.align	2
 336              		.global	HAL_ADCEx_InjectedStop
 337              		.thumb
 338              		.thumb_func
 340              	HAL_ADCEx_InjectedStop:
 341              	.LFB65:
 333:Drivers/STM32F1xx_HAL_Driver/Src/stm32f1xx_hal_adc_ex.c **** }
 334:Drivers/STM32F1xx_HAL_Driver/Src/stm32f1xx_hal_adc_ex.c **** 
 335:Drivers/STM32F1xx_HAL_Driver/Src/stm32f1xx_hal_adc_ex.c **** /**
 336:Drivers/STM32F1xx_HAL_Driver/Src/stm32f1xx_hal_adc_ex.c ****   * @brief  Stop conversion of injected channels. Disable ADC peripheral if
 337:Drivers/STM32F1xx_HAL_Driver/Src/stm32f1xx_hal_adc_ex.c ****   *         no regular conversion is on going.
 338:Drivers/STM32F1xx_HAL_Driver/Src/stm32f1xx_hal_adc_ex.c ****   * @note   If ADC must be disabled and if conversion is on going on 
 339:Drivers/STM32F1xx_HAL_Driver/Src/stm32f1xx_hal_adc_ex.c ****   *         regular group, function HAL_ADC_Stop must be used to stop both
 340:Drivers/STM32F1xx_HAL_Driver/Src/stm32f1xx_hal_adc_ex.c ****   *         injected and regular groups, and disable the ADC.
ARM GAS  /tmp/cc0wYaIi.s 			page 13


 341:Drivers/STM32F1xx_HAL_Driver/Src/stm32f1xx_hal_adc_ex.c ****   * @note   If injected group mode auto-injection is enabled,
 342:Drivers/STM32F1xx_HAL_Driver/Src/stm32f1xx_hal_adc_ex.c ****   *         function HAL_ADC_Stop must be used.
 343:Drivers/STM32F1xx_HAL_Driver/Src/stm32f1xx_hal_adc_ex.c ****   * @note   In case of auto-injection mode, HAL_ADC_Stop must be used.
 344:Drivers/STM32F1xx_HAL_Driver/Src/stm32f1xx_hal_adc_ex.c ****   * @param  hadc: ADC handle
 345:Drivers/STM32F1xx_HAL_Driver/Src/stm32f1xx_hal_adc_ex.c ****   * @retval None
 346:Drivers/STM32F1xx_HAL_Driver/Src/stm32f1xx_hal_adc_ex.c ****   */
 347:Drivers/STM32F1xx_HAL_Driver/Src/stm32f1xx_hal_adc_ex.c **** HAL_StatusTypeDef HAL_ADCEx_InjectedStop(ADC_HandleTypeDef* hadc)
 348:Drivers/STM32F1xx_HAL_Driver/Src/stm32f1xx_hal_adc_ex.c **** {
 342              		.loc 1 348 0
 343              		.cfi_startproc
 344              		@ args = 0, pretend = 0, frame = 0
 345              		@ frame_needed = 0, uses_anonymous_args = 0
 346              	.LVL22:
 349:Drivers/STM32F1xx_HAL_Driver/Src/stm32f1xx_hal_adc_ex.c ****   HAL_StatusTypeDef tmp_hal_status = HAL_OK;
 350:Drivers/STM32F1xx_HAL_Driver/Src/stm32f1xx_hal_adc_ex.c ****   
 351:Drivers/STM32F1xx_HAL_Driver/Src/stm32f1xx_hal_adc_ex.c ****   /* Check the parameters */
 352:Drivers/STM32F1xx_HAL_Driver/Src/stm32f1xx_hal_adc_ex.c ****   assert_param(IS_ADC_ALL_INSTANCE(hadc->Instance));
 353:Drivers/STM32F1xx_HAL_Driver/Src/stm32f1xx_hal_adc_ex.c **** 
 354:Drivers/STM32F1xx_HAL_Driver/Src/stm32f1xx_hal_adc_ex.c ****   /* Process locked */
 355:Drivers/STM32F1xx_HAL_Driver/Src/stm32f1xx_hal_adc_ex.c ****   __HAL_LOCK(hadc);
 347              		.loc 1 355 0
 348 0000 90F82430 		ldrb	r3, [r0, #36]	@ zero_extendqisi2
 349 0004 012B     		cmp	r3, #1
 350 0006 24D0     		beq	.L33
 348:Drivers/STM32F1xx_HAL_Driver/Src/stm32f1xx_hal_adc_ex.c ****   HAL_StatusTypeDef tmp_hal_status = HAL_OK;
 351              		.loc 1 348 0 discriminator 2
 352 0008 10B5     		push	{r4, lr}
 353              	.LCFI5:
 354              		.cfi_def_cfa_offset 8
 355              		.cfi_offset 4, -8
 356              		.cfi_offset 14, -4
 357 000a 0446     		mov	r4, r0
 358              		.loc 1 355 0 discriminator 2
 359 000c 0123     		movs	r3, #1
 360 000e 80F82430 		strb	r3, [r0, #36]
 356:Drivers/STM32F1xx_HAL_Driver/Src/stm32f1xx_hal_adc_ex.c ****     
 357:Drivers/STM32F1xx_HAL_Driver/Src/stm32f1xx_hal_adc_ex.c ****   /* Stop potential conversion and disable ADC peripheral                     */
 358:Drivers/STM32F1xx_HAL_Driver/Src/stm32f1xx_hal_adc_ex.c ****   /* Conditioned to:                                                          */
 359:Drivers/STM32F1xx_HAL_Driver/Src/stm32f1xx_hal_adc_ex.c ****   /* - No conversion on the other group (regular group) is intended to        */
 360:Drivers/STM32F1xx_HAL_Driver/Src/stm32f1xx_hal_adc_ex.c ****   /*   continue (injected and regular groups stop conversion and ADC disable  */
 361:Drivers/STM32F1xx_HAL_Driver/Src/stm32f1xx_hal_adc_ex.c ****   /*   are common)                                                            */
 362:Drivers/STM32F1xx_HAL_Driver/Src/stm32f1xx_hal_adc_ex.c ****   /* - In case of auto-injection mode, HAL_ADC_Stop must be used.             */
 363:Drivers/STM32F1xx_HAL_Driver/Src/stm32f1xx_hal_adc_ex.c ****   if(((hadc->State & HAL_ADC_STATE_REG_BUSY) == RESET)  &&
 361              		.loc 1 363 0 discriminator 2
 362 0012 836A     		ldr	r3, [r0, #40]
 363 0014 13F4807F 		tst	r3, #256
 364 0018 11D1     		bne	.L31
 364:Drivers/STM32F1xx_HAL_Driver/Src/stm32f1xx_hal_adc_ex.c ****      HAL_IS_BIT_CLR(hadc->Instance->CR1, ADC_CR1_JAUTO)   )
 365              		.loc 1 364 0 discriminator 1
 366 001a 0368     		ldr	r3, [r0]
 367 001c 5B68     		ldr	r3, [r3, #4]
 363:Drivers/STM32F1xx_HAL_Driver/Src/stm32f1xx_hal_adc_ex.c ****      HAL_IS_BIT_CLR(hadc->Instance->CR1, ADC_CR1_JAUTO)   )
 368              		.loc 1 363 0 discriminator 1
 369 001e 13F4806F 		tst	r3, #1024
 370 0022 0CD1     		bne	.L31
 365:Drivers/STM32F1xx_HAL_Driver/Src/stm32f1xx_hal_adc_ex.c ****   {
 366:Drivers/STM32F1xx_HAL_Driver/Src/stm32f1xx_hal_adc_ex.c ****     /* Stop potential conversion on going, on regular and injected groups */
ARM GAS  /tmp/cc0wYaIi.s 			page 14


 367:Drivers/STM32F1xx_HAL_Driver/Src/stm32f1xx_hal_adc_ex.c ****     /* Disable ADC peripheral */
 368:Drivers/STM32F1xx_HAL_Driver/Src/stm32f1xx_hal_adc_ex.c ****     tmp_hal_status = ADC_ConversionStop_Disable(hadc);
 371              		.loc 1 368 0
 372 0024 FFF7FEFF 		bl	ADC_ConversionStop_Disable
 373              	.LVL23:
 369:Drivers/STM32F1xx_HAL_Driver/Src/stm32f1xx_hal_adc_ex.c ****     
 370:Drivers/STM32F1xx_HAL_Driver/Src/stm32f1xx_hal_adc_ex.c ****     /* Check if ADC is effectively disabled */
 371:Drivers/STM32F1xx_HAL_Driver/Src/stm32f1xx_hal_adc_ex.c ****     if (tmp_hal_status == HAL_OK)
 374              		.loc 1 371 0
 375 0028 0346     		mov	r3, r0
 376 002a 68B9     		cbnz	r0, .L32
 372:Drivers/STM32F1xx_HAL_Driver/Src/stm32f1xx_hal_adc_ex.c ****     {
 373:Drivers/STM32F1xx_HAL_Driver/Src/stm32f1xx_hal_adc_ex.c ****       /* Set ADC state */
 374:Drivers/STM32F1xx_HAL_Driver/Src/stm32f1xx_hal_adc_ex.c ****       ADC_STATE_CLR_SET(hadc->State,
 377              		.loc 1 374 0
 378 002c A26A     		ldr	r2, [r4, #40]
 379 002e 22F48852 		bic	r2, r2, #4352
 380 0032 22F00102 		bic	r2, r2, #1
 381 0036 42F00102 		orr	r2, r2, #1
 382 003a A262     		str	r2, [r4, #40]
 383 003c 04E0     		b	.L32
 384              	.LVL24:
 385              	.L31:
 375:Drivers/STM32F1xx_HAL_Driver/Src/stm32f1xx_hal_adc_ex.c ****                         HAL_ADC_STATE_REG_BUSY | HAL_ADC_STATE_INJ_BUSY,
 376:Drivers/STM32F1xx_HAL_Driver/Src/stm32f1xx_hal_adc_ex.c ****                         HAL_ADC_STATE_READY);
 377:Drivers/STM32F1xx_HAL_Driver/Src/stm32f1xx_hal_adc_ex.c ****     }
 378:Drivers/STM32F1xx_HAL_Driver/Src/stm32f1xx_hal_adc_ex.c ****   }
 379:Drivers/STM32F1xx_HAL_Driver/Src/stm32f1xx_hal_adc_ex.c ****   else
 380:Drivers/STM32F1xx_HAL_Driver/Src/stm32f1xx_hal_adc_ex.c ****   {
 381:Drivers/STM32F1xx_HAL_Driver/Src/stm32f1xx_hal_adc_ex.c ****     /* Update ADC state machine to error */
 382:Drivers/STM32F1xx_HAL_Driver/Src/stm32f1xx_hal_adc_ex.c ****     SET_BIT(hadc->State, HAL_ADC_STATE_ERROR_CONFIG);
 386              		.loc 1 382 0
 387 003e A36A     		ldr	r3, [r4, #40]
 388 0040 43F02003 		orr	r3, r3, #32
 389 0044 A362     		str	r3, [r4, #40]
 390              	.LVL25:
 383:Drivers/STM32F1xx_HAL_Driver/Src/stm32f1xx_hal_adc_ex.c ****       
 384:Drivers/STM32F1xx_HAL_Driver/Src/stm32f1xx_hal_adc_ex.c ****     tmp_hal_status = HAL_ERROR;
 391              		.loc 1 384 0
 392 0046 0123     		movs	r3, #1
 393              	.LVL26:
 394              	.L32:
 385:Drivers/STM32F1xx_HAL_Driver/Src/stm32f1xx_hal_adc_ex.c ****   }
 386:Drivers/STM32F1xx_HAL_Driver/Src/stm32f1xx_hal_adc_ex.c ****   
 387:Drivers/STM32F1xx_HAL_Driver/Src/stm32f1xx_hal_adc_ex.c ****   /* Process unlocked */
 388:Drivers/STM32F1xx_HAL_Driver/Src/stm32f1xx_hal_adc_ex.c ****   __HAL_UNLOCK(hadc);
 395              		.loc 1 388 0
 396 0048 0022     		movs	r2, #0
 397 004a 84F82420 		strb	r2, [r4, #36]
 389:Drivers/STM32F1xx_HAL_Driver/Src/stm32f1xx_hal_adc_ex.c ****   
 390:Drivers/STM32F1xx_HAL_Driver/Src/stm32f1xx_hal_adc_ex.c ****   /* Return function status */
 391:Drivers/STM32F1xx_HAL_Driver/Src/stm32f1xx_hal_adc_ex.c ****   return tmp_hal_status;
 398              		.loc 1 391 0
 399 004e 1846     		mov	r0, r3
 400 0050 10BD     		pop	{r4, pc}
 401              	.LVL27:
 402              	.L33:
ARM GAS  /tmp/cc0wYaIi.s 			page 15


 403              	.LCFI6:
 404              		.cfi_def_cfa_offset 0
 405              		.cfi_restore 4
 406              		.cfi_restore 14
 355:Drivers/STM32F1xx_HAL_Driver/Src/stm32f1xx_hal_adc_ex.c ****     
 407              		.loc 1 355 0
 408 0052 0220     		movs	r0, #2
 409              	.LVL28:
 410 0054 7047     		bx	lr
 411              		.cfi_endproc
 412              	.LFE65:
 414 0056 00BF     		.section	.text.HAL_ADCEx_InjectedPollForConversion,"ax",%progbits
 415              		.align	2
 416              		.global	HAL_ADCEx_InjectedPollForConversion
 417              		.thumb
 418              		.thumb_func
 420              	HAL_ADCEx_InjectedPollForConversion:
 421              	.LFB66:
 392:Drivers/STM32F1xx_HAL_Driver/Src/stm32f1xx_hal_adc_ex.c **** }
 393:Drivers/STM32F1xx_HAL_Driver/Src/stm32f1xx_hal_adc_ex.c **** 
 394:Drivers/STM32F1xx_HAL_Driver/Src/stm32f1xx_hal_adc_ex.c **** /**
 395:Drivers/STM32F1xx_HAL_Driver/Src/stm32f1xx_hal_adc_ex.c ****   * @brief  Wait for injected group conversion to be completed.
 396:Drivers/STM32F1xx_HAL_Driver/Src/stm32f1xx_hal_adc_ex.c ****   * @param  hadc: ADC handle
 397:Drivers/STM32F1xx_HAL_Driver/Src/stm32f1xx_hal_adc_ex.c ****   * @param  Timeout: Timeout value in millisecond.
 398:Drivers/STM32F1xx_HAL_Driver/Src/stm32f1xx_hal_adc_ex.c ****   * @retval HAL status
 399:Drivers/STM32F1xx_HAL_Driver/Src/stm32f1xx_hal_adc_ex.c ****   */
 400:Drivers/STM32F1xx_HAL_Driver/Src/stm32f1xx_hal_adc_ex.c **** HAL_StatusTypeDef HAL_ADCEx_InjectedPollForConversion(ADC_HandleTypeDef* hadc, uint32_t Timeout)
 401:Drivers/STM32F1xx_HAL_Driver/Src/stm32f1xx_hal_adc_ex.c **** {
 422              		.loc 1 401 0
 423              		.cfi_startproc
 424              		@ args = 0, pretend = 0, frame = 8
 425              		@ frame_needed = 0, uses_anonymous_args = 0
 426              	.LVL29:
 427 0000 F0B5     		push	{r4, r5, r6, r7, lr}
 428              	.LCFI7:
 429              		.cfi_def_cfa_offset 20
 430              		.cfi_offset 4, -20
 431              		.cfi_offset 5, -16
 432              		.cfi_offset 6, -12
 433              		.cfi_offset 7, -8
 434              		.cfi_offset 14, -4
 435 0002 83B0     		sub	sp, sp, #12
 436              	.LCFI8:
 437              		.cfi_def_cfa_offset 32
 438 0004 0546     		mov	r5, r0
 439 0006 0C46     		mov	r4, r1
 402:Drivers/STM32F1xx_HAL_Driver/Src/stm32f1xx_hal_adc_ex.c ****   uint32_t tickstart;
 403:Drivers/STM32F1xx_HAL_Driver/Src/stm32f1xx_hal_adc_ex.c **** 
 404:Drivers/STM32F1xx_HAL_Driver/Src/stm32f1xx_hal_adc_ex.c ****   /* Variables for polling in case of scan mode enabled and polling for each  */
 405:Drivers/STM32F1xx_HAL_Driver/Src/stm32f1xx_hal_adc_ex.c ****   /* conversion.                                                              */
 406:Drivers/STM32F1xx_HAL_Driver/Src/stm32f1xx_hal_adc_ex.c ****   __IO uint32_t Conversion_Timeout_CPU_cycles = 0U;
 440              		.loc 1 406 0
 441 0008 0023     		movs	r3, #0
 442 000a 0193     		str	r3, [sp, #4]
 443              	.LVL30:
 407:Drivers/STM32F1xx_HAL_Driver/Src/stm32f1xx_hal_adc_ex.c ****   uint32_t Conversion_Timeout_CPU_cycles_max = 0U;
 408:Drivers/STM32F1xx_HAL_Driver/Src/stm32f1xx_hal_adc_ex.c ****   
ARM GAS  /tmp/cc0wYaIi.s 			page 16


 409:Drivers/STM32F1xx_HAL_Driver/Src/stm32f1xx_hal_adc_ex.c ****   /* Check the parameters */
 410:Drivers/STM32F1xx_HAL_Driver/Src/stm32f1xx_hal_adc_ex.c ****   assert_param(IS_ADC_ALL_INSTANCE(hadc->Instance));
 411:Drivers/STM32F1xx_HAL_Driver/Src/stm32f1xx_hal_adc_ex.c **** 
 412:Drivers/STM32F1xx_HAL_Driver/Src/stm32f1xx_hal_adc_ex.c ****   /* Get timeout */
 413:Drivers/STM32F1xx_HAL_Driver/Src/stm32f1xx_hal_adc_ex.c ****   tickstart = HAL_GetTick();  
 444              		.loc 1 413 0
 445 000c FFF7FEFF 		bl	HAL_GetTick
 446              	.LVL31:
 447 0010 0646     		mov	r6, r0
 448              	.LVL32:
 414:Drivers/STM32F1xx_HAL_Driver/Src/stm32f1xx_hal_adc_ex.c ****      
 415:Drivers/STM32F1xx_HAL_Driver/Src/stm32f1xx_hal_adc_ex.c ****   /* Polling for end of conversion: differentiation if single/sequence        */
 416:Drivers/STM32F1xx_HAL_Driver/Src/stm32f1xx_hal_adc_ex.c ****   /* conversion.                                                              */
 417:Drivers/STM32F1xx_HAL_Driver/Src/stm32f1xx_hal_adc_ex.c ****   /* For injected group, flag JEOC is set only at the end of the sequence,    */
 418:Drivers/STM32F1xx_HAL_Driver/Src/stm32f1xx_hal_adc_ex.c ****   /* not for each conversion within the sequence.                             */
 419:Drivers/STM32F1xx_HAL_Driver/Src/stm32f1xx_hal_adc_ex.c ****   /*  - If single conversion for injected group (scan mode disabled or        */
 420:Drivers/STM32F1xx_HAL_Driver/Src/stm32f1xx_hal_adc_ex.c ****   /*    InjectedNbrOfConversion ==1), flag JEOC is used to determine the      */
 421:Drivers/STM32F1xx_HAL_Driver/Src/stm32f1xx_hal_adc_ex.c ****   /*    conversion completion.                                                */
 422:Drivers/STM32F1xx_HAL_Driver/Src/stm32f1xx_hal_adc_ex.c ****   /*  - If sequence conversion for injected group (scan mode enabled and      */
 423:Drivers/STM32F1xx_HAL_Driver/Src/stm32f1xx_hal_adc_ex.c ****   /*    InjectedNbrOfConversion >=2), flag JEOC is set only at the end of the */
 424:Drivers/STM32F1xx_HAL_Driver/Src/stm32f1xx_hal_adc_ex.c ****   /*    sequence.                                                             */
 425:Drivers/STM32F1xx_HAL_Driver/Src/stm32f1xx_hal_adc_ex.c ****   /*    To poll for each conversion, the maximum conversion time is computed  */
 426:Drivers/STM32F1xx_HAL_Driver/Src/stm32f1xx_hal_adc_ex.c ****   /*    from ADC conversion time (selected sampling time + conversion time of */
 427:Drivers/STM32F1xx_HAL_Driver/Src/stm32f1xx_hal_adc_ex.c ****   /*    12.5 ADC clock cycles) and APB2/ADC clock prescalers (depending on    */
 428:Drivers/STM32F1xx_HAL_Driver/Src/stm32f1xx_hal_adc_ex.c ****   /*    settings, conversion time range can be from 28 to 32256 CPU cycles).  */
 429:Drivers/STM32F1xx_HAL_Driver/Src/stm32f1xx_hal_adc_ex.c ****   /*    As flag JEOC is not set after each conversion, no timeout status can  */
 430:Drivers/STM32F1xx_HAL_Driver/Src/stm32f1xx_hal_adc_ex.c ****   /*    be set.                                                               */
 431:Drivers/STM32F1xx_HAL_Driver/Src/stm32f1xx_hal_adc_ex.c ****   if ((hadc->Instance->JSQR & ADC_JSQR_JL) == RESET)
 449              		.loc 1 431 0
 450 0012 2B68     		ldr	r3, [r5]
 451 0014 9B6B     		ldr	r3, [r3, #56]
 452 0016 13F4401F 		tst	r3, #3145728
 453 001a 12D0     		beq	.L39
 454 001c 17E0     		b	.L63
 455              	.LVL33:
 456              	.L42:
 432:Drivers/STM32F1xx_HAL_Driver/Src/stm32f1xx_hal_adc_ex.c ****   {
 433:Drivers/STM32F1xx_HAL_Driver/Src/stm32f1xx_hal_adc_ex.c ****     /* Wait until End of Conversion flag is raised */
 434:Drivers/STM32F1xx_HAL_Driver/Src/stm32f1xx_hal_adc_ex.c ****     while(HAL_IS_BIT_CLR(hadc->Instance->SR, ADC_FLAG_JEOC))
 435:Drivers/STM32F1xx_HAL_Driver/Src/stm32f1xx_hal_adc_ex.c ****     {
 436:Drivers/STM32F1xx_HAL_Driver/Src/stm32f1xx_hal_adc_ex.c ****       /* Check if timeout is disabled (set to infinite wait) */
 437:Drivers/STM32F1xx_HAL_Driver/Src/stm32f1xx_hal_adc_ex.c ****       if(Timeout != HAL_MAX_DELAY)
 457              		.loc 1 437 0
 458 001e B4F1FF3F 		cmp	r4, #-1
 459 0022 0ED0     		beq	.L39
 438:Drivers/STM32F1xx_HAL_Driver/Src/stm32f1xx_hal_adc_ex.c ****       {
 439:Drivers/STM32F1xx_HAL_Driver/Src/stm32f1xx_hal_adc_ex.c ****         if((Timeout == 0U) || ((HAL_GetTick() - tickstart ) > Timeout))
 460              		.loc 1 439 0
 461 0024 24B1     		cbz	r4, .L40
 462              		.loc 1 439 0 is_stmt 0 discriminator 1
 463 0026 FFF7FEFF 		bl	HAL_GetTick
 464              	.LVL34:
 465 002a 801B     		subs	r0, r0, r6
 466 002c A042     		cmp	r0, r4
 467 002e 08D9     		bls	.L39
 468              	.L40:
 440:Drivers/STM32F1xx_HAL_Driver/Src/stm32f1xx_hal_adc_ex.c ****         {
ARM GAS  /tmp/cc0wYaIi.s 			page 17


 441:Drivers/STM32F1xx_HAL_Driver/Src/stm32f1xx_hal_adc_ex.c ****           /* Update ADC state machine to timeout */
 442:Drivers/STM32F1xx_HAL_Driver/Src/stm32f1xx_hal_adc_ex.c ****           SET_BIT(hadc->State, HAL_ADC_STATE_TIMEOUT);
 469              		.loc 1 442 0 is_stmt 1
 470 0030 AB6A     		ldr	r3, [r5, #40]
 471 0032 43F00403 		orr	r3, r3, #4
 472 0036 AB62     		str	r3, [r5, #40]
 443:Drivers/STM32F1xx_HAL_Driver/Src/stm32f1xx_hal_adc_ex.c ****           
 444:Drivers/STM32F1xx_HAL_Driver/Src/stm32f1xx_hal_adc_ex.c ****           /* Process unlocked */
 445:Drivers/STM32F1xx_HAL_Driver/Src/stm32f1xx_hal_adc_ex.c ****           __HAL_UNLOCK(hadc);
 473              		.loc 1 445 0
 474 0038 0023     		movs	r3, #0
 475 003a 85F82430 		strb	r3, [r5, #36]
 446:Drivers/STM32F1xx_HAL_Driver/Src/stm32f1xx_hal_adc_ex.c ****           
 447:Drivers/STM32F1xx_HAL_Driver/Src/stm32f1xx_hal_adc_ex.c ****           return HAL_TIMEOUT;
 476              		.loc 1 447 0
 477 003e 0320     		movs	r0, #3
 478 0040 87E0     		b	.L41
 479              	.L39:
 434:Drivers/STM32F1xx_HAL_Driver/Src/stm32f1xx_hal_adc_ex.c ****     {
 480              		.loc 1 434 0
 481 0042 2B68     		ldr	r3, [r5]
 482 0044 1B68     		ldr	r3, [r3]
 483 0046 13F0040F 		tst	r3, #4
 484 004a E8D0     		beq	.L42
 485 004c 51E0     		b	.L43
 486              	.LVL35:
 487              	.L63:
 448:Drivers/STM32F1xx_HAL_Driver/Src/stm32f1xx_hal_adc_ex.c ****         }
 449:Drivers/STM32F1xx_HAL_Driver/Src/stm32f1xx_hal_adc_ex.c ****       }
 450:Drivers/STM32F1xx_HAL_Driver/Src/stm32f1xx_hal_adc_ex.c ****     }
 451:Drivers/STM32F1xx_HAL_Driver/Src/stm32f1xx_hal_adc_ex.c ****   }
 452:Drivers/STM32F1xx_HAL_Driver/Src/stm32f1xx_hal_adc_ex.c ****   else
 453:Drivers/STM32F1xx_HAL_Driver/Src/stm32f1xx_hal_adc_ex.c ****   {
 454:Drivers/STM32F1xx_HAL_Driver/Src/stm32f1xx_hal_adc_ex.c ****     /* Replace polling by wait for maximum conversion time */
 455:Drivers/STM32F1xx_HAL_Driver/Src/stm32f1xx_hal_adc_ex.c ****     /*  - Computation of CPU clock cycles corresponding to ADC clock cycles   */
 456:Drivers/STM32F1xx_HAL_Driver/Src/stm32f1xx_hal_adc_ex.c ****     /*    and ADC maximum conversion cycles on all channels.                  */
 457:Drivers/STM32F1xx_HAL_Driver/Src/stm32f1xx_hal_adc_ex.c ****     /*  - Wait for the expected ADC clock cycles delay                        */
 458:Drivers/STM32F1xx_HAL_Driver/Src/stm32f1xx_hal_adc_ex.c ****     Conversion_Timeout_CPU_cycles_max = ((SystemCoreClock
 459:Drivers/STM32F1xx_HAL_Driver/Src/stm32f1xx_hal_adc_ex.c ****                                           / HAL_RCCEx_GetPeriphCLKFreq(RCC_PERIPHCLK_ADC))
 488              		.loc 1 459 0
 489 004e 424B     		ldr	r3, .L65
 490 0050 1F68     		ldr	r7, [r3]
 491 0052 0220     		movs	r0, #2
 492              	.LVL36:
 493 0054 FFF7FEFF 		bl	HAL_RCCEx_GetPeriphCLKFreq
 494              	.LVL37:
 495 0058 B7FBF0F0 		udiv	r0, r7, r0
 460:Drivers/STM32F1xx_HAL_Driver/Src/stm32f1xx_hal_adc_ex.c ****                                          * ADC_CONVCYCLES_MAX_RANGE(hadc)                 );
 496              		.loc 1 460 0
 497 005c 2B68     		ldr	r3, [r5]
 498 005e 1969     		ldr	r1, [r3, #16]
 499 0060 3E4A     		ldr	r2, .L65+4
 500 0062 1142     		tst	r1, r2
 501 0064 12D1     		bne	.L44
 502              		.loc 1 460 0 is_stmt 0 discriminator 1
 503 0066 D968     		ldr	r1, [r3, #12]
 504 0068 02F15C42 		add	r2, r2, #-603979776
ARM GAS  /tmp/cc0wYaIi.s 			page 18


 505 006c 1142     		tst	r1, r2
 506 006e 0DD1     		bne	.L44
 507              		.loc 1 460 0 discriminator 3
 508 0070 1969     		ldr	r1, [r3, #16]
 509 0072 3B4A     		ldr	r2, .L65+8
 510 0074 1142     		tst	r1, r2
 511 0076 05D1     		bne	.L54
 512              		.loc 1 460 0 discriminator 5
 513 0078 DA68     		ldr	r2, [r3, #12]
 514 007a 3A4B     		ldr	r3, .L65+12
 515 007c 1A42     		tst	r2, r3
 516 007e 03D0     		beq	.L55
 517              		.loc 1 460 0
 518 0080 2923     		movs	r3, #41
 519 0082 1BE0     		b	.L46
 520              	.L54:
 521 0084 2923     		movs	r3, #41
 522 0086 19E0     		b	.L46
 523              	.L55:
 524 0088 1423     		movs	r3, #20
 525 008a 17E0     		b	.L46
 526              	.L44:
 527              		.loc 1 460 0 discriminator 4
 528 008c 1969     		ldr	r1, [r3, #16]
 529 008e 344A     		ldr	r2, .L65+8
 530 0090 1142     		tst	r1, r2
 531 0092 04D1     		bne	.L47
 532              		.loc 1 460 0 discriminator 11
 533 0094 D968     		ldr	r1, [r3, #12]
 534 0096 02F16E42 		add	r2, r2, #-301989888
 535 009a 1142     		tst	r1, r2
 536 009c 09D0     		beq	.L56
 537              	.L47:
 538              		.loc 1 460 0 discriminator 14
 539 009e 1969     		ldr	r1, [r3, #16]
 540 00a0 314A     		ldr	r2, .L65+16
 541 00a2 0A40     		ands	r2, r2, r1
 542 00a4 3AB9     		cbnz	r2, .L57
 543              		.loc 1 460 0 discriminator 15
 544 00a6 DA68     		ldr	r2, [r3, #12]
 545 00a8 2F4B     		ldr	r3, .L65+16
 546 00aa 1340     		ands	r3, r3, r2
 547 00ac 2BB1     		cbz	r3, .L58
 548              		.loc 1 460 0
 549 00ae FC23     		movs	r3, #252
 550 00b0 04E0     		b	.L46
 551              	.L56:
 552 00b2 5423     		movs	r3, #84
 553 00b4 02E0     		b	.L46
 554              	.L57:
 555 00b6 FC23     		movs	r3, #252
 556 00b8 00E0     		b	.L46
 557              	.L58:
 558 00ba 5423     		movs	r3, #84
 559              	.L46:
 458:Drivers/STM32F1xx_HAL_Driver/Src/stm32f1xx_hal_adc_ex.c ****                                           / HAL_RCCEx_GetPeriphCLKFreq(RCC_PERIPHCLK_ADC))
 560              		.loc 1 458 0 is_stmt 1
ARM GAS  /tmp/cc0wYaIi.s 			page 19


 561 00bc 03FB00F7 		mul	r7, r3, r0
 562              	.LVL38:
 461:Drivers/STM32F1xx_HAL_Driver/Src/stm32f1xx_hal_adc_ex.c ****     
 462:Drivers/STM32F1xx_HAL_Driver/Src/stm32f1xx_hal_adc_ex.c ****     while(Conversion_Timeout_CPU_cycles < Conversion_Timeout_CPU_cycles_max)
 563              		.loc 1 462 0
 564 00c0 14E0     		b	.L49
 565              	.L52:
 463:Drivers/STM32F1xx_HAL_Driver/Src/stm32f1xx_hal_adc_ex.c ****     {
 464:Drivers/STM32F1xx_HAL_Driver/Src/stm32f1xx_hal_adc_ex.c ****       /* Check if timeout is disabled (set to infinite wait) */
 465:Drivers/STM32F1xx_HAL_Driver/Src/stm32f1xx_hal_adc_ex.c ****       if(Timeout != HAL_MAX_DELAY)
 566              		.loc 1 465 0
 567 00c2 B4F1FF3F 		cmp	r4, #-1
 568 00c6 0ED0     		beq	.L50
 466:Drivers/STM32F1xx_HAL_Driver/Src/stm32f1xx_hal_adc_ex.c ****       {
 467:Drivers/STM32F1xx_HAL_Driver/Src/stm32f1xx_hal_adc_ex.c ****         if((Timeout == 0)||((HAL_GetTick() - tickstart ) > Timeout))
 569              		.loc 1 467 0
 570 00c8 24B1     		cbz	r4, .L51
 571              		.loc 1 467 0 is_stmt 0 discriminator 1
 572 00ca FFF7FEFF 		bl	HAL_GetTick
 573              	.LVL39:
 574 00ce 801B     		subs	r0, r0, r6
 575 00d0 A042     		cmp	r0, r4
 576 00d2 08D9     		bls	.L50
 577              	.L51:
 468:Drivers/STM32F1xx_HAL_Driver/Src/stm32f1xx_hal_adc_ex.c ****         {
 469:Drivers/STM32F1xx_HAL_Driver/Src/stm32f1xx_hal_adc_ex.c ****           /* Update ADC state machine to timeout */
 470:Drivers/STM32F1xx_HAL_Driver/Src/stm32f1xx_hal_adc_ex.c ****           SET_BIT(hadc->State, HAL_ADC_STATE_TIMEOUT);
 578              		.loc 1 470 0 is_stmt 1
 579 00d4 AB6A     		ldr	r3, [r5, #40]
 580 00d6 43F00403 		orr	r3, r3, #4
 581 00da AB62     		str	r3, [r5, #40]
 471:Drivers/STM32F1xx_HAL_Driver/Src/stm32f1xx_hal_adc_ex.c **** 
 472:Drivers/STM32F1xx_HAL_Driver/Src/stm32f1xx_hal_adc_ex.c ****           /* Process unlocked */
 473:Drivers/STM32F1xx_HAL_Driver/Src/stm32f1xx_hal_adc_ex.c ****           __HAL_UNLOCK(hadc);
 582              		.loc 1 473 0
 583 00dc 0023     		movs	r3, #0
 584 00de 85F82430 		strb	r3, [r5, #36]
 474:Drivers/STM32F1xx_HAL_Driver/Src/stm32f1xx_hal_adc_ex.c ****           
 475:Drivers/STM32F1xx_HAL_Driver/Src/stm32f1xx_hal_adc_ex.c ****           return HAL_TIMEOUT;
 585              		.loc 1 475 0
 586 00e2 0320     		movs	r0, #3
 587 00e4 35E0     		b	.L41
 588              	.L50:
 476:Drivers/STM32F1xx_HAL_Driver/Src/stm32f1xx_hal_adc_ex.c ****         }
 477:Drivers/STM32F1xx_HAL_Driver/Src/stm32f1xx_hal_adc_ex.c ****       }
 478:Drivers/STM32F1xx_HAL_Driver/Src/stm32f1xx_hal_adc_ex.c ****       Conversion_Timeout_CPU_cycles ++;
 589              		.loc 1 478 0
 590 00e6 019B     		ldr	r3, [sp, #4]
 591 00e8 0133     		adds	r3, r3, #1
 592 00ea 0193     		str	r3, [sp, #4]
 593              	.L49:
 462:Drivers/STM32F1xx_HAL_Driver/Src/stm32f1xx_hal_adc_ex.c ****     {
 594              		.loc 1 462 0
 595 00ec 019B     		ldr	r3, [sp, #4]
 596 00ee BB42     		cmp	r3, r7
 597 00f0 E7D3     		bcc	.L52
 598              	.LVL40:
ARM GAS  /tmp/cc0wYaIi.s 			page 20


 599              	.L43:
 479:Drivers/STM32F1xx_HAL_Driver/Src/stm32f1xx_hal_adc_ex.c ****     }
 480:Drivers/STM32F1xx_HAL_Driver/Src/stm32f1xx_hal_adc_ex.c ****   }
 481:Drivers/STM32F1xx_HAL_Driver/Src/stm32f1xx_hal_adc_ex.c **** 
 482:Drivers/STM32F1xx_HAL_Driver/Src/stm32f1xx_hal_adc_ex.c ****   /* Clear injected group conversion flag */
 483:Drivers/STM32F1xx_HAL_Driver/Src/stm32f1xx_hal_adc_ex.c ****   /* Note: On STM32F1 ADC, clear regular conversion flag raised               */
 484:Drivers/STM32F1xx_HAL_Driver/Src/stm32f1xx_hal_adc_ex.c ****   /* simultaneously.                                                          */
 485:Drivers/STM32F1xx_HAL_Driver/Src/stm32f1xx_hal_adc_ex.c ****   __HAL_ADC_CLEAR_FLAG(hadc, ADC_FLAG_JSTRT | ADC_FLAG_JEOC | ADC_FLAG_EOC);
 600              		.loc 1 485 0
 601 00f2 2B68     		ldr	r3, [r5]
 602 00f4 6FF00E02 		mvn	r2, #14
 603 00f8 1A60     		str	r2, [r3]
 486:Drivers/STM32F1xx_HAL_Driver/Src/stm32f1xx_hal_adc_ex.c ****   
 487:Drivers/STM32F1xx_HAL_Driver/Src/stm32f1xx_hal_adc_ex.c ****   /* Update ADC state machine */
 488:Drivers/STM32F1xx_HAL_Driver/Src/stm32f1xx_hal_adc_ex.c ****   SET_BIT(hadc->State, HAL_ADC_STATE_INJ_EOC);
 604              		.loc 1 488 0
 605 00fa AB6A     		ldr	r3, [r5, #40]
 606 00fc 43F40053 		orr	r3, r3, #8192
 607 0100 AB62     		str	r3, [r5, #40]
 489:Drivers/STM32F1xx_HAL_Driver/Src/stm32f1xx_hal_adc_ex.c ****   
 490:Drivers/STM32F1xx_HAL_Driver/Src/stm32f1xx_hal_adc_ex.c ****   /* Determine whether any further conversion upcoming on group injected      */
 491:Drivers/STM32F1xx_HAL_Driver/Src/stm32f1xx_hal_adc_ex.c ****   /* by external trigger or by automatic injected conversion                  */
 492:Drivers/STM32F1xx_HAL_Driver/Src/stm32f1xx_hal_adc_ex.c ****   /* from group regular.                                                      */
 493:Drivers/STM32F1xx_HAL_Driver/Src/stm32f1xx_hal_adc_ex.c ****   if(ADC_IS_SOFTWARE_START_INJECTED(hadc)                     || 
 608              		.loc 1 493 0
 609 0102 2A68     		ldr	r2, [r5]
 610 0104 9368     		ldr	r3, [r2, #8]
 611 0106 03F4E043 		and	r3, r3, #28672
 612 010a B3F5E04F 		cmp	r3, #28672
 613 010e 0BD0     		beq	.L53
 494:Drivers/STM32F1xx_HAL_Driver/Src/stm32f1xx_hal_adc_ex.c ****      (HAL_IS_BIT_CLR(hadc->Instance->CR1, ADC_CR1_JAUTO) &&     
 614              		.loc 1 494 0 discriminator 1
 615 0110 5368     		ldr	r3, [r2, #4]
 493:Drivers/STM32F1xx_HAL_Driver/Src/stm32f1xx_hal_adc_ex.c ****      (HAL_IS_BIT_CLR(hadc->Instance->CR1, ADC_CR1_JAUTO) &&     
 616              		.loc 1 493 0 discriminator 1
 617 0112 13F4806F 		tst	r3, #1024
 618 0116 15D1     		bne	.L59
 495:Drivers/STM32F1xx_HAL_Driver/Src/stm32f1xx_hal_adc_ex.c ****      (ADC_IS_SOFTWARE_START_REGULAR(hadc)        &&
 619              		.loc 1 495 0
 620 0118 9368     		ldr	r3, [r2, #8]
 621 011a 03F46023 		and	r3, r3, #917504
 494:Drivers/STM32F1xx_HAL_Driver/Src/stm32f1xx_hal_adc_ex.c ****      (HAL_IS_BIT_CLR(hadc->Instance->CR1, ADC_CR1_JAUTO) &&     
 622              		.loc 1 494 0
 623 011e B3F5602F 		cmp	r3, #917504
 624 0122 11D1     		bne	.L60
 496:Drivers/STM32F1xx_HAL_Driver/Src/stm32f1xx_hal_adc_ex.c ****       (hadc->Init.ContinuousConvMode == DISABLE)   )        )   )
 625              		.loc 1 496 0
 626 0124 EB68     		ldr	r3, [r5, #12]
 495:Drivers/STM32F1xx_HAL_Driver/Src/stm32f1xx_hal_adc_ex.c ****      (ADC_IS_SOFTWARE_START_REGULAR(hadc)        &&
 627              		.loc 1 495 0
 628 0126 8BB9     		cbnz	r3, .L61
 629              	.L53:
 497:Drivers/STM32F1xx_HAL_Driver/Src/stm32f1xx_hal_adc_ex.c ****   {
 498:Drivers/STM32F1xx_HAL_Driver/Src/stm32f1xx_hal_adc_ex.c ****     /* Set ADC state */
 499:Drivers/STM32F1xx_HAL_Driver/Src/stm32f1xx_hal_adc_ex.c ****     CLEAR_BIT(hadc->State, HAL_ADC_STATE_INJ_BUSY);   
 630              		.loc 1 499 0
 631 0128 AB6A     		ldr	r3, [r5, #40]
ARM GAS  /tmp/cc0wYaIi.s 			page 21


 632 012a 23F48053 		bic	r3, r3, #4096
 633 012e AB62     		str	r3, [r5, #40]
 500:Drivers/STM32F1xx_HAL_Driver/Src/stm32f1xx_hal_adc_ex.c ****     
 501:Drivers/STM32F1xx_HAL_Driver/Src/stm32f1xx_hal_adc_ex.c ****     if (HAL_IS_BIT_CLR(hadc->State, HAL_ADC_STATE_REG_BUSY))
 634              		.loc 1 501 0
 635 0130 AB6A     		ldr	r3, [r5, #40]
 636 0132 13F4807F 		tst	r3, #256
 637 0136 0BD1     		bne	.L62
 502:Drivers/STM32F1xx_HAL_Driver/Src/stm32f1xx_hal_adc_ex.c ****     {
 503:Drivers/STM32F1xx_HAL_Driver/Src/stm32f1xx_hal_adc_ex.c ****       SET_BIT(hadc->State, HAL_ADC_STATE_READY);
 638              		.loc 1 503 0
 639 0138 AB6A     		ldr	r3, [r5, #40]
 640 013a 43F00103 		orr	r3, r3, #1
 641 013e AB62     		str	r3, [r5, #40]
 504:Drivers/STM32F1xx_HAL_Driver/Src/stm32f1xx_hal_adc_ex.c ****     }
 505:Drivers/STM32F1xx_HAL_Driver/Src/stm32f1xx_hal_adc_ex.c ****   }
 506:Drivers/STM32F1xx_HAL_Driver/Src/stm32f1xx_hal_adc_ex.c ****   
 507:Drivers/STM32F1xx_HAL_Driver/Src/stm32f1xx_hal_adc_ex.c ****   /* Return ADC state */
 508:Drivers/STM32F1xx_HAL_Driver/Src/stm32f1xx_hal_adc_ex.c ****   return HAL_OK;
 642              		.loc 1 508 0
 643 0140 0020     		movs	r0, #0
 644 0142 06E0     		b	.L41
 645              	.L59:
 646 0144 0020     		movs	r0, #0
 647 0146 04E0     		b	.L41
 648              	.L60:
 649 0148 0020     		movs	r0, #0
 650 014a 02E0     		b	.L41
 651              	.L61:
 652 014c 0020     		movs	r0, #0
 653 014e 00E0     		b	.L41
 654              	.L62:
 655 0150 0020     		movs	r0, #0
 656              	.L41:
 509:Drivers/STM32F1xx_HAL_Driver/Src/stm32f1xx_hal_adc_ex.c **** }
 657              		.loc 1 509 0
 658 0152 03B0     		add	sp, sp, #12
 659              	.LCFI9:
 660              		.cfi_def_cfa_offset 20
 661              		@ sp needed
 662 0154 F0BD     		pop	{r4, r5, r6, r7, pc}
 663              	.LVL41:
 664              	.L66:
 665 0156 00BF     		.align	2
 666              	.L65:
 667 0158 00000000 		.word	SystemCoreClock
 668 015c 24499224 		.word	613566756
 669 0160 92244912 		.word	306783378
 670 0164 92244900 		.word	4793490
 671 0168 49922400 		.word	2396745
 672              		.cfi_endproc
 673              	.LFE66:
 675              		.section	.text.HAL_ADCEx_InjectedStart_IT,"ax",%progbits
 676              		.align	2
 677              		.global	HAL_ADCEx_InjectedStart_IT
 678              		.thumb
 679              		.thumb_func
ARM GAS  /tmp/cc0wYaIi.s 			page 22


 681              	HAL_ADCEx_InjectedStart_IT:
 682              	.LFB67:
 510:Drivers/STM32F1xx_HAL_Driver/Src/stm32f1xx_hal_adc_ex.c **** 
 511:Drivers/STM32F1xx_HAL_Driver/Src/stm32f1xx_hal_adc_ex.c **** /**
 512:Drivers/STM32F1xx_HAL_Driver/Src/stm32f1xx_hal_adc_ex.c ****   * @brief  Enables ADC, starts conversion of injected group with interruption.
 513:Drivers/STM32F1xx_HAL_Driver/Src/stm32f1xx_hal_adc_ex.c ****   *          - JEOC (end of conversion of injected group)
 514:Drivers/STM32F1xx_HAL_Driver/Src/stm32f1xx_hal_adc_ex.c ****   *         Each of these interruptions has its dedicated callback function.
 515:Drivers/STM32F1xx_HAL_Driver/Src/stm32f1xx_hal_adc_ex.c ****   * @param  hadc: ADC handle
 516:Drivers/STM32F1xx_HAL_Driver/Src/stm32f1xx_hal_adc_ex.c ****   * @retval HAL status.
 517:Drivers/STM32F1xx_HAL_Driver/Src/stm32f1xx_hal_adc_ex.c ****   */
 518:Drivers/STM32F1xx_HAL_Driver/Src/stm32f1xx_hal_adc_ex.c **** HAL_StatusTypeDef HAL_ADCEx_InjectedStart_IT(ADC_HandleTypeDef* hadc)
 519:Drivers/STM32F1xx_HAL_Driver/Src/stm32f1xx_hal_adc_ex.c **** {
 683              		.loc 1 519 0
 684              		.cfi_startproc
 685              		@ args = 0, pretend = 0, frame = 0
 686              		@ frame_needed = 0, uses_anonymous_args = 0
 687              	.LVL42:
 520:Drivers/STM32F1xx_HAL_Driver/Src/stm32f1xx_hal_adc_ex.c ****   HAL_StatusTypeDef tmp_hal_status = HAL_OK;
 521:Drivers/STM32F1xx_HAL_Driver/Src/stm32f1xx_hal_adc_ex.c ****   
 522:Drivers/STM32F1xx_HAL_Driver/Src/stm32f1xx_hal_adc_ex.c ****   /* Check the parameters */
 523:Drivers/STM32F1xx_HAL_Driver/Src/stm32f1xx_hal_adc_ex.c ****   assert_param(IS_ADC_ALL_INSTANCE(hadc->Instance));
 524:Drivers/STM32F1xx_HAL_Driver/Src/stm32f1xx_hal_adc_ex.c ****   
 525:Drivers/STM32F1xx_HAL_Driver/Src/stm32f1xx_hal_adc_ex.c ****   /* Process locked */
 526:Drivers/STM32F1xx_HAL_Driver/Src/stm32f1xx_hal_adc_ex.c ****   __HAL_LOCK(hadc);
 688              		.loc 1 526 0
 689 0000 90F82430 		ldrb	r3, [r0, #36]	@ zero_extendqisi2
 690 0004 012B     		cmp	r3, #1
 691 0006 58D0     		beq	.L77
 519:Drivers/STM32F1xx_HAL_Driver/Src/stm32f1xx_hal_adc_ex.c ****   HAL_StatusTypeDef tmp_hal_status = HAL_OK;
 692              		.loc 1 519 0 discriminator 2
 693 0008 10B5     		push	{r4, lr}
 694              	.LCFI10:
 695              		.cfi_def_cfa_offset 8
 696              		.cfi_offset 4, -8
 697              		.cfi_offset 14, -4
 698 000a 0446     		mov	r4, r0
 699              		.loc 1 526 0 discriminator 2
 700 000c 0123     		movs	r3, #1
 701 000e 80F82430 		strb	r3, [r0, #36]
 527:Drivers/STM32F1xx_HAL_Driver/Src/stm32f1xx_hal_adc_ex.c ****     
 528:Drivers/STM32F1xx_HAL_Driver/Src/stm32f1xx_hal_adc_ex.c ****   /* Enable the ADC peripheral */
 529:Drivers/STM32F1xx_HAL_Driver/Src/stm32f1xx_hal_adc_ex.c ****   tmp_hal_status = ADC_Enable(hadc);
 702              		.loc 1 529 0 discriminator 2
 703 0012 FFF7FEFF 		bl	ADC_Enable
 704              	.LVL43:
 530:Drivers/STM32F1xx_HAL_Driver/Src/stm32f1xx_hal_adc_ex.c ****   
 531:Drivers/STM32F1xx_HAL_Driver/Src/stm32f1xx_hal_adc_ex.c ****   /* Start conversion if ADC is effectively enabled */
 532:Drivers/STM32F1xx_HAL_Driver/Src/stm32f1xx_hal_adc_ex.c ****   if (tmp_hal_status == HAL_OK)
 705              		.loc 1 532 0 discriminator 2
 706 0016 0346     		mov	r3, r0
 707 0018 0028     		cmp	r0, #0
 708 001a 49D1     		bne	.L69
 533:Drivers/STM32F1xx_HAL_Driver/Src/stm32f1xx_hal_adc_ex.c ****   {
 534:Drivers/STM32F1xx_HAL_Driver/Src/stm32f1xx_hal_adc_ex.c ****     /* Set ADC state                                                          */
 535:Drivers/STM32F1xx_HAL_Driver/Src/stm32f1xx_hal_adc_ex.c ****     /* - Clear state bitfield related to injected group conversion results    */
 536:Drivers/STM32F1xx_HAL_Driver/Src/stm32f1xx_hal_adc_ex.c ****     /* - Set state bitfield related to injected operation                     */
 537:Drivers/STM32F1xx_HAL_Driver/Src/stm32f1xx_hal_adc_ex.c ****     ADC_STATE_CLR_SET(hadc->State,
ARM GAS  /tmp/cc0wYaIi.s 			page 23


 709              		.loc 1 537 0
 710 001c A26A     		ldr	r2, [r4, #40]
 711 001e 22F44052 		bic	r2, r2, #12288
 712 0022 22F00102 		bic	r2, r2, #1
 713 0026 42F48052 		orr	r2, r2, #4096
 714 002a A262     		str	r2, [r4, #40]
 538:Drivers/STM32F1xx_HAL_Driver/Src/stm32f1xx_hal_adc_ex.c ****                       HAL_ADC_STATE_READY | HAL_ADC_STATE_INJ_EOC,
 539:Drivers/STM32F1xx_HAL_Driver/Src/stm32f1xx_hal_adc_ex.c ****                       HAL_ADC_STATE_INJ_BUSY);
 540:Drivers/STM32F1xx_HAL_Driver/Src/stm32f1xx_hal_adc_ex.c ****     
 541:Drivers/STM32F1xx_HAL_Driver/Src/stm32f1xx_hal_adc_ex.c ****     /* Case of independent mode or multimode (for devices with several ADCs): */
 542:Drivers/STM32F1xx_HAL_Driver/Src/stm32f1xx_hal_adc_ex.c ****     /* Set multimode state.                                                   */
 543:Drivers/STM32F1xx_HAL_Driver/Src/stm32f1xx_hal_adc_ex.c ****     if (ADC_NONMULTIMODE_OR_MULTIMODEMASTER(hadc))
 715              		.loc 1 543 0
 716 002c 2168     		ldr	r1, [r4]
 717 002e 244A     		ldr	r2, .L80
 718 0030 9142     		cmp	r1, r2
 719 0032 05D1     		bne	.L70
 720              		.loc 1 543 0 is_stmt 0 discriminator 1
 721 0034 A2F58062 		sub	r2, r2, #1024
 722 0038 5268     		ldr	r2, [r2, #4]
 723 003a 12F4702F 		tst	r2, #983040
 724 003e 04D1     		bne	.L71
 725              	.L70:
 544:Drivers/STM32F1xx_HAL_Driver/Src/stm32f1xx_hal_adc_ex.c ****     {
 545:Drivers/STM32F1xx_HAL_Driver/Src/stm32f1xx_hal_adc_ex.c ****       CLEAR_BIT(hadc->State, HAL_ADC_STATE_MULTIMODE_SLAVE);
 726              		.loc 1 545 0 is_stmt 1
 727 0040 A26A     		ldr	r2, [r4, #40]
 728 0042 22F48012 		bic	r2, r2, #1048576
 729 0046 A262     		str	r2, [r4, #40]
 730 0048 03E0     		b	.L72
 731              	.L71:
 546:Drivers/STM32F1xx_HAL_Driver/Src/stm32f1xx_hal_adc_ex.c ****     }
 547:Drivers/STM32F1xx_HAL_Driver/Src/stm32f1xx_hal_adc_ex.c ****     else
 548:Drivers/STM32F1xx_HAL_Driver/Src/stm32f1xx_hal_adc_ex.c ****     {
 549:Drivers/STM32F1xx_HAL_Driver/Src/stm32f1xx_hal_adc_ex.c ****       SET_BIT(hadc->State, HAL_ADC_STATE_MULTIMODE_SLAVE);
 732              		.loc 1 549 0
 733 004a A26A     		ldr	r2, [r4, #40]
 734 004c 42F48012 		orr	r2, r2, #1048576
 735 0050 A262     		str	r2, [r4, #40]
 736              	.L72:
 550:Drivers/STM32F1xx_HAL_Driver/Src/stm32f1xx_hal_adc_ex.c ****     }
 551:Drivers/STM32F1xx_HAL_Driver/Src/stm32f1xx_hal_adc_ex.c ****     
 552:Drivers/STM32F1xx_HAL_Driver/Src/stm32f1xx_hal_adc_ex.c ****     /* Check if a regular conversion is ongoing */
 553:Drivers/STM32F1xx_HAL_Driver/Src/stm32f1xx_hal_adc_ex.c ****     /* Note: On this device, there is no ADC error code fields related to     */
 554:Drivers/STM32F1xx_HAL_Driver/Src/stm32f1xx_hal_adc_ex.c ****     /*       conversions on group injected only. In case of conversion on     */
 555:Drivers/STM32F1xx_HAL_Driver/Src/stm32f1xx_hal_adc_ex.c ****     /*       going on group regular, no error code is reset.                  */
 556:Drivers/STM32F1xx_HAL_Driver/Src/stm32f1xx_hal_adc_ex.c ****     if (HAL_IS_BIT_CLR(hadc->State, HAL_ADC_STATE_REG_BUSY))
 737              		.loc 1 556 0
 738 0052 A26A     		ldr	r2, [r4, #40]
 739 0054 12F4807F 		tst	r2, #256
 740 0058 01D1     		bne	.L73
 557:Drivers/STM32F1xx_HAL_Driver/Src/stm32f1xx_hal_adc_ex.c ****     {
 558:Drivers/STM32F1xx_HAL_Driver/Src/stm32f1xx_hal_adc_ex.c ****       /* Reset ADC all error code fields */
 559:Drivers/STM32F1xx_HAL_Driver/Src/stm32f1xx_hal_adc_ex.c ****       ADC_CLEAR_ERRORCODE(hadc);
 741              		.loc 1 559 0
 742 005a 0022     		movs	r2, #0
 743 005c E262     		str	r2, [r4, #44]
ARM GAS  /tmp/cc0wYaIi.s 			page 24


 744              	.L73:
 560:Drivers/STM32F1xx_HAL_Driver/Src/stm32f1xx_hal_adc_ex.c ****     }
 561:Drivers/STM32F1xx_HAL_Driver/Src/stm32f1xx_hal_adc_ex.c ****     
 562:Drivers/STM32F1xx_HAL_Driver/Src/stm32f1xx_hal_adc_ex.c ****     /* Process unlocked */
 563:Drivers/STM32F1xx_HAL_Driver/Src/stm32f1xx_hal_adc_ex.c ****     /* Unlock before starting ADC conversions: in case of potential           */
 564:Drivers/STM32F1xx_HAL_Driver/Src/stm32f1xx_hal_adc_ex.c ****     /* interruption, to let the process to ADC IRQ Handler.                   */
 565:Drivers/STM32F1xx_HAL_Driver/Src/stm32f1xx_hal_adc_ex.c ****     __HAL_UNLOCK(hadc);
 745              		.loc 1 565 0
 746 005e 0022     		movs	r2, #0
 747 0060 84F82420 		strb	r2, [r4, #36]
 566:Drivers/STM32F1xx_HAL_Driver/Src/stm32f1xx_hal_adc_ex.c ****     
 567:Drivers/STM32F1xx_HAL_Driver/Src/stm32f1xx_hal_adc_ex.c ****     /* Clear injected group conversion flag */
 568:Drivers/STM32F1xx_HAL_Driver/Src/stm32f1xx_hal_adc_ex.c ****     /* (To ensure of no unknown state from potential previous ADC operations) */
 569:Drivers/STM32F1xx_HAL_Driver/Src/stm32f1xx_hal_adc_ex.c ****     __HAL_ADC_CLEAR_FLAG(hadc, ADC_FLAG_JEOC);
 748              		.loc 1 569 0
 749 0064 6FF00402 		mvn	r2, #4
 750 0068 0A60     		str	r2, [r1]
 570:Drivers/STM32F1xx_HAL_Driver/Src/stm32f1xx_hal_adc_ex.c ****     
 571:Drivers/STM32F1xx_HAL_Driver/Src/stm32f1xx_hal_adc_ex.c ****     /* Enable end of conversion interrupt for injected channels */
 572:Drivers/STM32F1xx_HAL_Driver/Src/stm32f1xx_hal_adc_ex.c ****     __HAL_ADC_ENABLE_IT(hadc, ADC_IT_JEOC);
 751              		.loc 1 572 0
 752 006a 2168     		ldr	r1, [r4]
 753 006c 4A68     		ldr	r2, [r1, #4]
 754 006e 42F08002 		orr	r2, r2, #128
 755 0072 4A60     		str	r2, [r1, #4]
 573:Drivers/STM32F1xx_HAL_Driver/Src/stm32f1xx_hal_adc_ex.c ****     
 574:Drivers/STM32F1xx_HAL_Driver/Src/stm32f1xx_hal_adc_ex.c ****     /* Start conversion of injected group if software start has been selected */
 575:Drivers/STM32F1xx_HAL_Driver/Src/stm32f1xx_hal_adc_ex.c ****     /* and if automatic injected conversion is disabled.                      */
 576:Drivers/STM32F1xx_HAL_Driver/Src/stm32f1xx_hal_adc_ex.c ****     /* If external trigger has been selected, conversion will start at next   */
 577:Drivers/STM32F1xx_HAL_Driver/Src/stm32f1xx_hal_adc_ex.c ****     /* trigger event.                                                         */
 578:Drivers/STM32F1xx_HAL_Driver/Src/stm32f1xx_hal_adc_ex.c ****     /* If automatic injected conversion is enabled, conversion will start     */
 579:Drivers/STM32F1xx_HAL_Driver/Src/stm32f1xx_hal_adc_ex.c ****     /* after next regular group conversion.                                   */
 580:Drivers/STM32F1xx_HAL_Driver/Src/stm32f1xx_hal_adc_ex.c ****     if (HAL_IS_BIT_CLR(hadc->Instance->CR1, ADC_CR1_JAUTO))
 756              		.loc 1 580 0
 757 0074 2268     		ldr	r2, [r4]
 758 0076 5168     		ldr	r1, [r2, #4]
 759 0078 11F4806F 		tst	r1, #1024
 760 007c 1BD1     		bne	.L74
 581:Drivers/STM32F1xx_HAL_Driver/Src/stm32f1xx_hal_adc_ex.c ****     {
 582:Drivers/STM32F1xx_HAL_Driver/Src/stm32f1xx_hal_adc_ex.c ****       if (ADC_IS_SOFTWARE_START_INJECTED(hadc)     &&
 761              		.loc 1 582 0
 762 007e 9168     		ldr	r1, [r2, #8]
 763 0080 01F4E041 		and	r1, r1, #28672
 764 0084 B1F5E04F 		cmp	r1, #28672
 765 0088 0DD1     		bne	.L75
 766              		.loc 1 582 0 is_stmt 0 discriminator 1
 767 008a 0D49     		ldr	r1, .L80
 768 008c 8A42     		cmp	r2, r1
 769 008e 05D1     		bne	.L76
 583:Drivers/STM32F1xx_HAL_Driver/Src/stm32f1xx_hal_adc_ex.c ****           ADC_NONMULTIMODE_OR_MULTIMODEMASTER(hadc)  )
 770              		.loc 1 583 0 is_stmt 1 discriminator 2
 771 0090 A1F58061 		sub	r1, r1, #1024
 772 0094 4968     		ldr	r1, [r1, #4]
 582:Drivers/STM32F1xx_HAL_Driver/Src/stm32f1xx_hal_adc_ex.c ****           ADC_NONMULTIMODE_OR_MULTIMODEMASTER(hadc)  )
 773              		.loc 1 582 0 discriminator 2
 774 0096 11F4702F 		tst	r1, #983040
 775 009a 04D1     		bne	.L75
ARM GAS  /tmp/cc0wYaIi.s 			page 25


 776              	.L76:
 584:Drivers/STM32F1xx_HAL_Driver/Src/stm32f1xx_hal_adc_ex.c ****       {
 585:Drivers/STM32F1xx_HAL_Driver/Src/stm32f1xx_hal_adc_ex.c ****         /* Start ADC conversion on injected group with SW start */
 586:Drivers/STM32F1xx_HAL_Driver/Src/stm32f1xx_hal_adc_ex.c ****         SET_BIT(hadc->Instance->CR2, (ADC_CR2_JSWSTART | ADC_CR2_JEXTTRIG));
 777              		.loc 1 586 0
 778 009c 9168     		ldr	r1, [r2, #8]
 779 009e 41F40211 		orr	r1, r1, #2129920
 780 00a2 9160     		str	r1, [r2, #8]
 781 00a4 07E0     		b	.L74
 782              	.L75:
 587:Drivers/STM32F1xx_HAL_Driver/Src/stm32f1xx_hal_adc_ex.c ****       }
 588:Drivers/STM32F1xx_HAL_Driver/Src/stm32f1xx_hal_adc_ex.c ****       else
 589:Drivers/STM32F1xx_HAL_Driver/Src/stm32f1xx_hal_adc_ex.c ****       {
 590:Drivers/STM32F1xx_HAL_Driver/Src/stm32f1xx_hal_adc_ex.c ****         /* Start ADC conversion on injected group with external trigger */
 591:Drivers/STM32F1xx_HAL_Driver/Src/stm32f1xx_hal_adc_ex.c ****         SET_BIT(hadc->Instance->CR2, ADC_CR2_JEXTTRIG);
 783              		.loc 1 591 0
 784 00a6 9168     		ldr	r1, [r2, #8]
 785 00a8 41F40041 		orr	r1, r1, #32768
 786 00ac 9160     		str	r1, [r2, #8]
 787 00ae 02E0     		b	.L74
 788              	.L69:
 592:Drivers/STM32F1xx_HAL_Driver/Src/stm32f1xx_hal_adc_ex.c ****       }
 593:Drivers/STM32F1xx_HAL_Driver/Src/stm32f1xx_hal_adc_ex.c ****     }
 594:Drivers/STM32F1xx_HAL_Driver/Src/stm32f1xx_hal_adc_ex.c ****   }
 595:Drivers/STM32F1xx_HAL_Driver/Src/stm32f1xx_hal_adc_ex.c ****   else
 596:Drivers/STM32F1xx_HAL_Driver/Src/stm32f1xx_hal_adc_ex.c ****   {
 597:Drivers/STM32F1xx_HAL_Driver/Src/stm32f1xx_hal_adc_ex.c ****     /* Process unlocked */
 598:Drivers/STM32F1xx_HAL_Driver/Src/stm32f1xx_hal_adc_ex.c ****     __HAL_UNLOCK(hadc);
 789              		.loc 1 598 0
 790 00b0 0022     		movs	r2, #0
 791 00b2 84F82420 		strb	r2, [r4, #36]
 792              	.L74:
 599:Drivers/STM32F1xx_HAL_Driver/Src/stm32f1xx_hal_adc_ex.c ****   }
 600:Drivers/STM32F1xx_HAL_Driver/Src/stm32f1xx_hal_adc_ex.c ****   
 601:Drivers/STM32F1xx_HAL_Driver/Src/stm32f1xx_hal_adc_ex.c ****   /* Return function status */
 602:Drivers/STM32F1xx_HAL_Driver/Src/stm32f1xx_hal_adc_ex.c ****   return tmp_hal_status;
 793              		.loc 1 602 0
 794 00b6 1846     		mov	r0, r3
 795              	.LVL44:
 796 00b8 10BD     		pop	{r4, pc}
 797              	.LVL45:
 798              	.L77:
 799              	.LCFI11:
 800              		.cfi_def_cfa_offset 0
 801              		.cfi_restore 4
 802              		.cfi_restore 14
 526:Drivers/STM32F1xx_HAL_Driver/Src/stm32f1xx_hal_adc_ex.c ****     
 803              		.loc 1 526 0
 804 00ba 0220     		movs	r0, #2
 805              	.LVL46:
 806 00bc 7047     		bx	lr
 807              	.L81:
 808 00be 00BF     		.align	2
 809              	.L80:
 810 00c0 00280140 		.word	1073817600
 811              		.cfi_endproc
 812              	.LFE67:
ARM GAS  /tmp/cc0wYaIi.s 			page 26


 814              		.section	.text.HAL_ADCEx_InjectedStop_IT,"ax",%progbits
 815              		.align	2
 816              		.global	HAL_ADCEx_InjectedStop_IT
 817              		.thumb
 818              		.thumb_func
 820              	HAL_ADCEx_InjectedStop_IT:
 821              	.LFB68:
 603:Drivers/STM32F1xx_HAL_Driver/Src/stm32f1xx_hal_adc_ex.c **** }
 604:Drivers/STM32F1xx_HAL_Driver/Src/stm32f1xx_hal_adc_ex.c **** 
 605:Drivers/STM32F1xx_HAL_Driver/Src/stm32f1xx_hal_adc_ex.c **** /**
 606:Drivers/STM32F1xx_HAL_Driver/Src/stm32f1xx_hal_adc_ex.c ****   * @brief  Stop conversion of injected channels, disable interruption of 
 607:Drivers/STM32F1xx_HAL_Driver/Src/stm32f1xx_hal_adc_ex.c ****   *         end-of-conversion. Disable ADC peripheral if no regular conversion
 608:Drivers/STM32F1xx_HAL_Driver/Src/stm32f1xx_hal_adc_ex.c ****   *         is on going.
 609:Drivers/STM32F1xx_HAL_Driver/Src/stm32f1xx_hal_adc_ex.c ****   * @note   If ADC must be disabled and if conversion is on going on 
 610:Drivers/STM32F1xx_HAL_Driver/Src/stm32f1xx_hal_adc_ex.c ****   *         regular group, function HAL_ADC_Stop must be used to stop both
 611:Drivers/STM32F1xx_HAL_Driver/Src/stm32f1xx_hal_adc_ex.c ****   *         injected and regular groups, and disable the ADC.
 612:Drivers/STM32F1xx_HAL_Driver/Src/stm32f1xx_hal_adc_ex.c ****   * @note   If injected group mode auto-injection is enabled,
 613:Drivers/STM32F1xx_HAL_Driver/Src/stm32f1xx_hal_adc_ex.c ****   *         function HAL_ADC_Stop must be used.
 614:Drivers/STM32F1xx_HAL_Driver/Src/stm32f1xx_hal_adc_ex.c ****   * @param  hadc: ADC handle
 615:Drivers/STM32F1xx_HAL_Driver/Src/stm32f1xx_hal_adc_ex.c ****   * @retval None
 616:Drivers/STM32F1xx_HAL_Driver/Src/stm32f1xx_hal_adc_ex.c ****   */
 617:Drivers/STM32F1xx_HAL_Driver/Src/stm32f1xx_hal_adc_ex.c **** HAL_StatusTypeDef HAL_ADCEx_InjectedStop_IT(ADC_HandleTypeDef* hadc)
 618:Drivers/STM32F1xx_HAL_Driver/Src/stm32f1xx_hal_adc_ex.c **** {
 822              		.loc 1 618 0
 823              		.cfi_startproc
 824              		@ args = 0, pretend = 0, frame = 0
 825              		@ frame_needed = 0, uses_anonymous_args = 0
 826              	.LVL47:
 619:Drivers/STM32F1xx_HAL_Driver/Src/stm32f1xx_hal_adc_ex.c ****   HAL_StatusTypeDef tmp_hal_status = HAL_OK;
 620:Drivers/STM32F1xx_HAL_Driver/Src/stm32f1xx_hal_adc_ex.c ****   
 621:Drivers/STM32F1xx_HAL_Driver/Src/stm32f1xx_hal_adc_ex.c ****   /* Check the parameters */
 622:Drivers/STM32F1xx_HAL_Driver/Src/stm32f1xx_hal_adc_ex.c ****   assert_param(IS_ADC_ALL_INSTANCE(hadc->Instance));
 623:Drivers/STM32F1xx_HAL_Driver/Src/stm32f1xx_hal_adc_ex.c **** 
 624:Drivers/STM32F1xx_HAL_Driver/Src/stm32f1xx_hal_adc_ex.c ****   /* Process locked */
 625:Drivers/STM32F1xx_HAL_Driver/Src/stm32f1xx_hal_adc_ex.c ****   __HAL_LOCK(hadc);
 827              		.loc 1 625 0
 828 0000 90F82430 		ldrb	r3, [r0, #36]	@ zero_extendqisi2
 829 0004 012B     		cmp	r3, #1
 830 0006 29D0     		beq	.L86
 618:Drivers/STM32F1xx_HAL_Driver/Src/stm32f1xx_hal_adc_ex.c ****   HAL_StatusTypeDef tmp_hal_status = HAL_OK;
 831              		.loc 1 618 0 discriminator 2
 832 0008 10B5     		push	{r4, lr}
 833              	.LCFI12:
 834              		.cfi_def_cfa_offset 8
 835              		.cfi_offset 4, -8
 836              		.cfi_offset 14, -4
 837 000a 0446     		mov	r4, r0
 838              		.loc 1 625 0 discriminator 2
 839 000c 0123     		movs	r3, #1
 840 000e 80F82430 		strb	r3, [r0, #36]
 626:Drivers/STM32F1xx_HAL_Driver/Src/stm32f1xx_hal_adc_ex.c ****     
 627:Drivers/STM32F1xx_HAL_Driver/Src/stm32f1xx_hal_adc_ex.c ****   /* Stop potential conversion and disable ADC peripheral                     */
 628:Drivers/STM32F1xx_HAL_Driver/Src/stm32f1xx_hal_adc_ex.c ****   /* Conditioned to:                                                          */
 629:Drivers/STM32F1xx_HAL_Driver/Src/stm32f1xx_hal_adc_ex.c ****   /* - No conversion on the other group (regular group) is intended to        */
 630:Drivers/STM32F1xx_HAL_Driver/Src/stm32f1xx_hal_adc_ex.c ****   /*   continue (injected and regular groups stop conversion and ADC disable  */
 631:Drivers/STM32F1xx_HAL_Driver/Src/stm32f1xx_hal_adc_ex.c ****   /*   are common)                                                            */
 632:Drivers/STM32F1xx_HAL_Driver/Src/stm32f1xx_hal_adc_ex.c ****   /* - In case of auto-injection mode, HAL_ADC_Stop must be used.             */ 
ARM GAS  /tmp/cc0wYaIi.s 			page 27


 633:Drivers/STM32F1xx_HAL_Driver/Src/stm32f1xx_hal_adc_ex.c ****   if(((hadc->State & HAL_ADC_STATE_REG_BUSY) == RESET)  &&
 841              		.loc 1 633 0 discriminator 2
 842 0012 836A     		ldr	r3, [r0, #40]
 843 0014 13F4807F 		tst	r3, #256
 844 0018 16D1     		bne	.L84
 634:Drivers/STM32F1xx_HAL_Driver/Src/stm32f1xx_hal_adc_ex.c ****      HAL_IS_BIT_CLR(hadc->Instance->CR1, ADC_CR1_JAUTO)   )
 845              		.loc 1 634 0 discriminator 1
 846 001a 0368     		ldr	r3, [r0]
 847 001c 5B68     		ldr	r3, [r3, #4]
 633:Drivers/STM32F1xx_HAL_Driver/Src/stm32f1xx_hal_adc_ex.c ****      HAL_IS_BIT_CLR(hadc->Instance->CR1, ADC_CR1_JAUTO)   )
 848              		.loc 1 633 0 discriminator 1
 849 001e 13F4806F 		tst	r3, #1024
 850 0022 11D1     		bne	.L84
 635:Drivers/STM32F1xx_HAL_Driver/Src/stm32f1xx_hal_adc_ex.c ****   {
 636:Drivers/STM32F1xx_HAL_Driver/Src/stm32f1xx_hal_adc_ex.c ****     /* Stop potential conversion on going, on regular and injected groups */
 637:Drivers/STM32F1xx_HAL_Driver/Src/stm32f1xx_hal_adc_ex.c ****     /* Disable ADC peripheral */
 638:Drivers/STM32F1xx_HAL_Driver/Src/stm32f1xx_hal_adc_ex.c ****     tmp_hal_status = ADC_ConversionStop_Disable(hadc);
 851              		.loc 1 638 0
 852 0024 FFF7FEFF 		bl	ADC_ConversionStop_Disable
 853              	.LVL48:
 639:Drivers/STM32F1xx_HAL_Driver/Src/stm32f1xx_hal_adc_ex.c ****     
 640:Drivers/STM32F1xx_HAL_Driver/Src/stm32f1xx_hal_adc_ex.c ****     /* Check if ADC is effectively disabled */
 641:Drivers/STM32F1xx_HAL_Driver/Src/stm32f1xx_hal_adc_ex.c ****     if (tmp_hal_status == HAL_OK)
 854              		.loc 1 641 0
 855 0028 0346     		mov	r3, r0
 856 002a 90B9     		cbnz	r0, .L85
 642:Drivers/STM32F1xx_HAL_Driver/Src/stm32f1xx_hal_adc_ex.c ****     {
 643:Drivers/STM32F1xx_HAL_Driver/Src/stm32f1xx_hal_adc_ex.c ****       /* Disable ADC end of conversion interrupt for injected channels */
 644:Drivers/STM32F1xx_HAL_Driver/Src/stm32f1xx_hal_adc_ex.c ****       __HAL_ADC_DISABLE_IT(hadc, ADC_IT_JEOC);
 857              		.loc 1 644 0
 858 002c 2168     		ldr	r1, [r4]
 859 002e 4A68     		ldr	r2, [r1, #4]
 860 0030 22F08002 		bic	r2, r2, #128
 861 0034 4A60     		str	r2, [r1, #4]
 645:Drivers/STM32F1xx_HAL_Driver/Src/stm32f1xx_hal_adc_ex.c ****       
 646:Drivers/STM32F1xx_HAL_Driver/Src/stm32f1xx_hal_adc_ex.c ****       /* Set ADC state */
 647:Drivers/STM32F1xx_HAL_Driver/Src/stm32f1xx_hal_adc_ex.c ****       ADC_STATE_CLR_SET(hadc->State,
 862              		.loc 1 647 0
 863 0036 A26A     		ldr	r2, [r4, #40]
 864 0038 22F48852 		bic	r2, r2, #4352
 865 003c 22F00102 		bic	r2, r2, #1
 866 0040 42F00102 		orr	r2, r2, #1
 867 0044 A262     		str	r2, [r4, #40]
 868 0046 04E0     		b	.L85
 869              	.LVL49:
 870              	.L84:
 648:Drivers/STM32F1xx_HAL_Driver/Src/stm32f1xx_hal_adc_ex.c ****                         HAL_ADC_STATE_REG_BUSY | HAL_ADC_STATE_INJ_BUSY,
 649:Drivers/STM32F1xx_HAL_Driver/Src/stm32f1xx_hal_adc_ex.c ****                         HAL_ADC_STATE_READY);
 650:Drivers/STM32F1xx_HAL_Driver/Src/stm32f1xx_hal_adc_ex.c ****     }
 651:Drivers/STM32F1xx_HAL_Driver/Src/stm32f1xx_hal_adc_ex.c ****   }
 652:Drivers/STM32F1xx_HAL_Driver/Src/stm32f1xx_hal_adc_ex.c ****   else
 653:Drivers/STM32F1xx_HAL_Driver/Src/stm32f1xx_hal_adc_ex.c ****   {
 654:Drivers/STM32F1xx_HAL_Driver/Src/stm32f1xx_hal_adc_ex.c ****     /* Update ADC state machine to error */
 655:Drivers/STM32F1xx_HAL_Driver/Src/stm32f1xx_hal_adc_ex.c ****     SET_BIT(hadc->State, HAL_ADC_STATE_ERROR_CONFIG);
 871              		.loc 1 655 0
 872 0048 A36A     		ldr	r3, [r4, #40]
 873 004a 43F02003 		orr	r3, r3, #32
ARM GAS  /tmp/cc0wYaIi.s 			page 28


 874 004e A362     		str	r3, [r4, #40]
 875              	.LVL50:
 656:Drivers/STM32F1xx_HAL_Driver/Src/stm32f1xx_hal_adc_ex.c ****       
 657:Drivers/STM32F1xx_HAL_Driver/Src/stm32f1xx_hal_adc_ex.c ****     tmp_hal_status = HAL_ERROR;
 876              		.loc 1 657 0
 877 0050 0123     		movs	r3, #1
 878              	.LVL51:
 879              	.L85:
 658:Drivers/STM32F1xx_HAL_Driver/Src/stm32f1xx_hal_adc_ex.c ****   }
 659:Drivers/STM32F1xx_HAL_Driver/Src/stm32f1xx_hal_adc_ex.c ****   
 660:Drivers/STM32F1xx_HAL_Driver/Src/stm32f1xx_hal_adc_ex.c ****   /* Process unlocked */
 661:Drivers/STM32F1xx_HAL_Driver/Src/stm32f1xx_hal_adc_ex.c ****   __HAL_UNLOCK(hadc);
 880              		.loc 1 661 0
 881 0052 0022     		movs	r2, #0
 882 0054 84F82420 		strb	r2, [r4, #36]
 662:Drivers/STM32F1xx_HAL_Driver/Src/stm32f1xx_hal_adc_ex.c ****   
 663:Drivers/STM32F1xx_HAL_Driver/Src/stm32f1xx_hal_adc_ex.c ****   /* Return function status */
 664:Drivers/STM32F1xx_HAL_Driver/Src/stm32f1xx_hal_adc_ex.c ****   return tmp_hal_status;
 883              		.loc 1 664 0
 884 0058 1846     		mov	r0, r3
 885 005a 10BD     		pop	{r4, pc}
 886              	.LVL52:
 887              	.L86:
 888              	.LCFI13:
 889              		.cfi_def_cfa_offset 0
 890              		.cfi_restore 4
 891              		.cfi_restore 14
 625:Drivers/STM32F1xx_HAL_Driver/Src/stm32f1xx_hal_adc_ex.c ****     
 892              		.loc 1 625 0
 893 005c 0220     		movs	r0, #2
 894              	.LVL53:
 895 005e 7047     		bx	lr
 896              		.cfi_endproc
 897              	.LFE68:
 899              		.section	.text.HAL_ADCEx_MultiModeStart_DMA,"ax",%progbits
 900              		.align	2
 901              		.global	HAL_ADCEx_MultiModeStart_DMA
 902              		.thumb
 903              		.thumb_func
 905              	HAL_ADCEx_MultiModeStart_DMA:
 906              	.LFB69:
 665:Drivers/STM32F1xx_HAL_Driver/Src/stm32f1xx_hal_adc_ex.c **** }
 666:Drivers/STM32F1xx_HAL_Driver/Src/stm32f1xx_hal_adc_ex.c **** 
 667:Drivers/STM32F1xx_HAL_Driver/Src/stm32f1xx_hal_adc_ex.c **** #if defined (STM32F103x6) || defined (STM32F103xB) || defined (STM32F105xC) || defined (STM32F107xC
 668:Drivers/STM32F1xx_HAL_Driver/Src/stm32f1xx_hal_adc_ex.c **** /**
 669:Drivers/STM32F1xx_HAL_Driver/Src/stm32f1xx_hal_adc_ex.c ****   * @brief  Enables ADC, starts conversion of regular group and transfers result
 670:Drivers/STM32F1xx_HAL_Driver/Src/stm32f1xx_hal_adc_ex.c ****   *         through DMA.
 671:Drivers/STM32F1xx_HAL_Driver/Src/stm32f1xx_hal_adc_ex.c ****   *         Multimode must have been previously configured using 
 672:Drivers/STM32F1xx_HAL_Driver/Src/stm32f1xx_hal_adc_ex.c ****   *         HAL_ADCEx_MultiModeConfigChannel() function.
 673:Drivers/STM32F1xx_HAL_Driver/Src/stm32f1xx_hal_adc_ex.c ****   *         Interruptions enabled in this function:
 674:Drivers/STM32F1xx_HAL_Driver/Src/stm32f1xx_hal_adc_ex.c ****   *          - DMA transfer complete
 675:Drivers/STM32F1xx_HAL_Driver/Src/stm32f1xx_hal_adc_ex.c ****   *          - DMA half transfer
 676:Drivers/STM32F1xx_HAL_Driver/Src/stm32f1xx_hal_adc_ex.c ****   *         Each of these interruptions has its dedicated callback function.
 677:Drivers/STM32F1xx_HAL_Driver/Src/stm32f1xx_hal_adc_ex.c ****   * @note:  On STM32F1 devices, ADC slave regular group must be configured 
 678:Drivers/STM32F1xx_HAL_Driver/Src/stm32f1xx_hal_adc_ex.c ****   *         with conversion trigger ADC_SOFTWARE_START.
 679:Drivers/STM32F1xx_HAL_Driver/Src/stm32f1xx_hal_adc_ex.c ****   * @note:  ADC slave can be enabled preliminarily using single-mode  
 680:Drivers/STM32F1xx_HAL_Driver/Src/stm32f1xx_hal_adc_ex.c ****   *         HAL_ADC_Start() function.
ARM GAS  /tmp/cc0wYaIi.s 			page 29


 681:Drivers/STM32F1xx_HAL_Driver/Src/stm32f1xx_hal_adc_ex.c ****   * @param  hadc: ADC handle of ADC master (handle of ADC slave must not be used)
 682:Drivers/STM32F1xx_HAL_Driver/Src/stm32f1xx_hal_adc_ex.c ****   * @param  pData: The destination Buffer address.
 683:Drivers/STM32F1xx_HAL_Driver/Src/stm32f1xx_hal_adc_ex.c ****   * @param  Length: The length of data to be transferred from ADC peripheral to memory.
 684:Drivers/STM32F1xx_HAL_Driver/Src/stm32f1xx_hal_adc_ex.c ****   * @retval None
 685:Drivers/STM32F1xx_HAL_Driver/Src/stm32f1xx_hal_adc_ex.c ****   */
 686:Drivers/STM32F1xx_HAL_Driver/Src/stm32f1xx_hal_adc_ex.c **** HAL_StatusTypeDef HAL_ADCEx_MultiModeStart_DMA(ADC_HandleTypeDef* hadc, uint32_t* pData, uint32_t L
 687:Drivers/STM32F1xx_HAL_Driver/Src/stm32f1xx_hal_adc_ex.c **** {
 907              		.loc 1 687 0
 908              		.cfi_startproc
 909              		@ args = 0, pretend = 0, frame = 48
 910              		@ frame_needed = 0, uses_anonymous_args = 0
 911              	.LVL54:
 912 0000 F0B5     		push	{r4, r5, r6, r7, lr}
 913              	.LCFI14:
 914              		.cfi_def_cfa_offset 20
 915              		.cfi_offset 4, -20
 916              		.cfi_offset 5, -16
 917              		.cfi_offset 6, -12
 918              		.cfi_offset 7, -8
 919              		.cfi_offset 14, -4
 920 0002 8DB0     		sub	sp, sp, #52
 921              	.LCFI15:
 922              		.cfi_def_cfa_offset 72
 923              	.LVL55:
 688:Drivers/STM32F1xx_HAL_Driver/Src/stm32f1xx_hal_adc_ex.c ****   HAL_StatusTypeDef tmp_hal_status = HAL_OK;
 689:Drivers/STM32F1xx_HAL_Driver/Src/stm32f1xx_hal_adc_ex.c ****   ADC_HandleTypeDef tmphadcSlave;
 690:Drivers/STM32F1xx_HAL_Driver/Src/stm32f1xx_hal_adc_ex.c **** 
 691:Drivers/STM32F1xx_HAL_Driver/Src/stm32f1xx_hal_adc_ex.c ****   /* Check the parameters */
 692:Drivers/STM32F1xx_HAL_Driver/Src/stm32f1xx_hal_adc_ex.c ****   assert_param(IS_ADC_MULTIMODE_MASTER_INSTANCE(hadc->Instance));
 693:Drivers/STM32F1xx_HAL_Driver/Src/stm32f1xx_hal_adc_ex.c ****   assert_param(IS_FUNCTIONAL_STATE(hadc->Init.ContinuousConvMode));
 694:Drivers/STM32F1xx_HAL_Driver/Src/stm32f1xx_hal_adc_ex.c ****   
 695:Drivers/STM32F1xx_HAL_Driver/Src/stm32f1xx_hal_adc_ex.c ****   /* Process locked */
 696:Drivers/STM32F1xx_HAL_Driver/Src/stm32f1xx_hal_adc_ex.c ****   __HAL_LOCK(hadc);
 924              		.loc 1 696 0
 925 0004 90F82440 		ldrb	r4, [r0, #36]	@ zero_extendqisi2
 926 0008 012C     		cmp	r4, #1
 927 000a 64D0     		beq	.L97
 928              		.loc 1 696 0 is_stmt 0 discriminator 2
 929 000c 0124     		movs	r4, #1
 930 000e 80F82440 		strb	r4, [r0, #36]
 697:Drivers/STM32F1xx_HAL_Driver/Src/stm32f1xx_hal_adc_ex.c **** 
 698:Drivers/STM32F1xx_HAL_Driver/Src/stm32f1xx_hal_adc_ex.c ****   /* Set a temporary handle of the ADC slave associated to the ADC master     */
 699:Drivers/STM32F1xx_HAL_Driver/Src/stm32f1xx_hal_adc_ex.c ****   ADC_MULTI_SLAVE(hadc, &tmphadcSlave);
 931              		.loc 1 699 0 is_stmt 1 discriminator 2
 932 0012 324C     		ldr	r4, .L99
 933 0014 0094     		str	r4, [sp]
 700:Drivers/STM32F1xx_HAL_Driver/Src/stm32f1xx_hal_adc_ex.c ****   
 701:Drivers/STM32F1xx_HAL_Driver/Src/stm32f1xx_hal_adc_ex.c ****   /* On STM32F1 devices, ADC slave regular group must be configured with      */
 702:Drivers/STM32F1xx_HAL_Driver/Src/stm32f1xx_hal_adc_ex.c ****   /* conversion trigger ADC_SOFTWARE_START.                                   */
 703:Drivers/STM32F1xx_HAL_Driver/Src/stm32f1xx_hal_adc_ex.c ****   /* Note: External trigger of ADC slave must be enabled, it is already done  */
 704:Drivers/STM32F1xx_HAL_Driver/Src/stm32f1xx_hal_adc_ex.c ****   /*       into function "HAL_ADC_Init()".                                    */
 705:Drivers/STM32F1xx_HAL_Driver/Src/stm32f1xx_hal_adc_ex.c ****   if(!ADC_IS_SOFTWARE_START_REGULAR(&tmphadcSlave))  
 934              		.loc 1 705 0 discriminator 2
 935 0016 A468     		ldr	r4, [r4, #8]
 936 0018 04F46024 		and	r4, r4, #917504
 937 001c B4F5602F 		cmp	r4, #917504
 938 0020 08D0     		beq	.L91
ARM GAS  /tmp/cc0wYaIi.s 			page 30


 706:Drivers/STM32F1xx_HAL_Driver/Src/stm32f1xx_hal_adc_ex.c ****   {
 707:Drivers/STM32F1xx_HAL_Driver/Src/stm32f1xx_hal_adc_ex.c ****     /* Update ADC state machine to error */
 708:Drivers/STM32F1xx_HAL_Driver/Src/stm32f1xx_hal_adc_ex.c ****     SET_BIT(hadc->State, HAL_ADC_STATE_ERROR_CONFIG);
 939              		.loc 1 708 0
 940 0022 836A     		ldr	r3, [r0, #40]
 941 0024 43F02003 		orr	r3, r3, #32
 942 0028 8362     		str	r3, [r0, #40]
 709:Drivers/STM32F1xx_HAL_Driver/Src/stm32f1xx_hal_adc_ex.c ****     
 710:Drivers/STM32F1xx_HAL_Driver/Src/stm32f1xx_hal_adc_ex.c ****     /* Process unlocked */
 711:Drivers/STM32F1xx_HAL_Driver/Src/stm32f1xx_hal_adc_ex.c ****     __HAL_UNLOCK(hadc);
 943              		.loc 1 711 0
 944 002a 0023     		movs	r3, #0
 945 002c 80F82430 		strb	r3, [r0, #36]
 712:Drivers/STM32F1xx_HAL_Driver/Src/stm32f1xx_hal_adc_ex.c ****     
 713:Drivers/STM32F1xx_HAL_Driver/Src/stm32f1xx_hal_adc_ex.c ****     return HAL_ERROR;
 946              		.loc 1 713 0
 947 0030 0120     		movs	r0, #1
 948              	.LVL56:
 949 0032 51E0     		b	.L90
 950              	.LVL57:
 951              	.L91:
 952 0034 1646     		mov	r6, r2
 953 0036 0D46     		mov	r5, r1
 954 0038 0746     		mov	r7, r0
 714:Drivers/STM32F1xx_HAL_Driver/Src/stm32f1xx_hal_adc_ex.c ****   }
 715:Drivers/STM32F1xx_HAL_Driver/Src/stm32f1xx_hal_adc_ex.c ****   
 716:Drivers/STM32F1xx_HAL_Driver/Src/stm32f1xx_hal_adc_ex.c ****   /* Enable the ADC peripherals: master and slave (in case if not already     */
 717:Drivers/STM32F1xx_HAL_Driver/Src/stm32f1xx_hal_adc_ex.c ****   /* enabled previously)                                                      */
 718:Drivers/STM32F1xx_HAL_Driver/Src/stm32f1xx_hal_adc_ex.c ****   tmp_hal_status = ADC_Enable(hadc);
 955              		.loc 1 718 0
 956 003a FFF7FEFF 		bl	ADC_Enable
 957              	.LVL58:
 719:Drivers/STM32F1xx_HAL_Driver/Src/stm32f1xx_hal_adc_ex.c ****   if (tmp_hal_status == HAL_OK)
 958              		.loc 1 719 0
 959 003e 0446     		mov	r4, r0
 960 0040 18B9     		cbnz	r0, .L92
 720:Drivers/STM32F1xx_HAL_Driver/Src/stm32f1xx_hal_adc_ex.c ****   {
 721:Drivers/STM32F1xx_HAL_Driver/Src/stm32f1xx_hal_adc_ex.c ****     tmp_hal_status = ADC_Enable(&tmphadcSlave);
 961              		.loc 1 721 0
 962 0042 6846     		mov	r0, sp
 963              	.LVL59:
 964 0044 FFF7FEFF 		bl	ADC_Enable
 965              	.LVL60:
 966 0048 0446     		mov	r4, r0
 967              	.LVL61:
 968              	.L92:
 722:Drivers/STM32F1xx_HAL_Driver/Src/stm32f1xx_hal_adc_ex.c ****   }
 723:Drivers/STM32F1xx_HAL_Driver/Src/stm32f1xx_hal_adc_ex.c ****   
 724:Drivers/STM32F1xx_HAL_Driver/Src/stm32f1xx_hal_adc_ex.c ****   /* Start conversion if all ADCs of multimode are effectively enabled */
 725:Drivers/STM32F1xx_HAL_Driver/Src/stm32f1xx_hal_adc_ex.c ****   if (tmp_hal_status == HAL_OK)
 969              		.loc 1 725 0
 970 004a 002C     		cmp	r4, #0
 971 004c 3ED1     		bne	.L93
 726:Drivers/STM32F1xx_HAL_Driver/Src/stm32f1xx_hal_adc_ex.c ****   {
 727:Drivers/STM32F1xx_HAL_Driver/Src/stm32f1xx_hal_adc_ex.c ****     /* Set ADC state (ADC master)                                             */
 728:Drivers/STM32F1xx_HAL_Driver/Src/stm32f1xx_hal_adc_ex.c ****     /* - Clear state bitfield related to regular group conversion results     */
 729:Drivers/STM32F1xx_HAL_Driver/Src/stm32f1xx_hal_adc_ex.c ****     /* - Set state bitfield related to regular operation                      */
ARM GAS  /tmp/cc0wYaIi.s 			page 31


 730:Drivers/STM32F1xx_HAL_Driver/Src/stm32f1xx_hal_adc_ex.c ****     ADC_STATE_CLR_SET(hadc->State,
 972              		.loc 1 730 0
 973 004e BA6A     		ldr	r2, [r7, #40]
 974 0050 234B     		ldr	r3, .L99+4
 975 0052 1340     		ands	r3, r3, r2
 976 0054 43F48073 		orr	r3, r3, #256
 977 0058 BB62     		str	r3, [r7, #40]
 731:Drivers/STM32F1xx_HAL_Driver/Src/stm32f1xx_hal_adc_ex.c ****                       HAL_ADC_STATE_READY | HAL_ADC_STATE_REG_EOC | HAL_ADC_STATE_MULTIMODE_SLAVE,
 732:Drivers/STM32F1xx_HAL_Driver/Src/stm32f1xx_hal_adc_ex.c ****                       HAL_ADC_STATE_REG_BUSY);
 733:Drivers/STM32F1xx_HAL_Driver/Src/stm32f1xx_hal_adc_ex.c ****       
 734:Drivers/STM32F1xx_HAL_Driver/Src/stm32f1xx_hal_adc_ex.c ****     /* If conversions on group regular are also triggering group injected,    */
 735:Drivers/STM32F1xx_HAL_Driver/Src/stm32f1xx_hal_adc_ex.c ****     /* update ADC state.                                                      */
 736:Drivers/STM32F1xx_HAL_Driver/Src/stm32f1xx_hal_adc_ex.c ****     if (READ_BIT(hadc->Instance->CR1, ADC_CR1_JAUTO) != RESET)
 978              		.loc 1 736 0
 979 005a 3B68     		ldr	r3, [r7]
 980 005c 5B68     		ldr	r3, [r3, #4]
 981 005e 13F4806F 		tst	r3, #1024
 982 0062 05D0     		beq	.L94
 737:Drivers/STM32F1xx_HAL_Driver/Src/stm32f1xx_hal_adc_ex.c ****     {
 738:Drivers/STM32F1xx_HAL_Driver/Src/stm32f1xx_hal_adc_ex.c ****       ADC_STATE_CLR_SET(hadc->State, HAL_ADC_STATE_INJ_EOC, HAL_ADC_STATE_INJ_BUSY);  
 983              		.loc 1 738 0
 984 0064 BB6A     		ldr	r3, [r7, #40]
 985 0066 23F44053 		bic	r3, r3, #12288
 986 006a 43F48053 		orr	r3, r3, #4096
 987 006e BB62     		str	r3, [r7, #40]
 988              	.L94:
 739:Drivers/STM32F1xx_HAL_Driver/Src/stm32f1xx_hal_adc_ex.c ****     }
 740:Drivers/STM32F1xx_HAL_Driver/Src/stm32f1xx_hal_adc_ex.c ****     
 741:Drivers/STM32F1xx_HAL_Driver/Src/stm32f1xx_hal_adc_ex.c ****     /* Process unlocked */
 742:Drivers/STM32F1xx_HAL_Driver/Src/stm32f1xx_hal_adc_ex.c ****     /* Unlock before starting ADC conversions: in case of potential           */
 743:Drivers/STM32F1xx_HAL_Driver/Src/stm32f1xx_hal_adc_ex.c ****     /* interruption, to let the process to ADC IRQ Handler.                   */
 744:Drivers/STM32F1xx_HAL_Driver/Src/stm32f1xx_hal_adc_ex.c ****     __HAL_UNLOCK(hadc);
 989              		.loc 1 744 0
 990 0070 0023     		movs	r3, #0
 991 0072 87F82430 		strb	r3, [r7, #36]
 745:Drivers/STM32F1xx_HAL_Driver/Src/stm32f1xx_hal_adc_ex.c ****     
 746:Drivers/STM32F1xx_HAL_Driver/Src/stm32f1xx_hal_adc_ex.c ****     /* Set ADC error code to none */
 747:Drivers/STM32F1xx_HAL_Driver/Src/stm32f1xx_hal_adc_ex.c ****     ADC_CLEAR_ERRORCODE(hadc);
 992              		.loc 1 747 0
 993 0076 FB62     		str	r3, [r7, #44]
 748:Drivers/STM32F1xx_HAL_Driver/Src/stm32f1xx_hal_adc_ex.c ****     
 749:Drivers/STM32F1xx_HAL_Driver/Src/stm32f1xx_hal_adc_ex.c ****     
 750:Drivers/STM32F1xx_HAL_Driver/Src/stm32f1xx_hal_adc_ex.c ****     /* Set the DMA transfer complete callback */
 751:Drivers/STM32F1xx_HAL_Driver/Src/stm32f1xx_hal_adc_ex.c ****     hadc->DMA_Handle->XferCpltCallback = ADC_DMAConvCplt;
 994              		.loc 1 751 0
 995 0078 3B6A     		ldr	r3, [r7, #32]
 996 007a 1A4A     		ldr	r2, .L99+8
 997 007c 9A62     		str	r2, [r3, #40]
 752:Drivers/STM32F1xx_HAL_Driver/Src/stm32f1xx_hal_adc_ex.c ****        
 753:Drivers/STM32F1xx_HAL_Driver/Src/stm32f1xx_hal_adc_ex.c ****     /* Set the DMA half transfer complete callback */
 754:Drivers/STM32F1xx_HAL_Driver/Src/stm32f1xx_hal_adc_ex.c ****     hadc->DMA_Handle->XferHalfCpltCallback = ADC_DMAHalfConvCplt;
 998              		.loc 1 754 0
 999 007e 3B6A     		ldr	r3, [r7, #32]
 1000 0080 194A     		ldr	r2, .L99+12
 1001 0082 DA62     		str	r2, [r3, #44]
 755:Drivers/STM32F1xx_HAL_Driver/Src/stm32f1xx_hal_adc_ex.c ****     
 756:Drivers/STM32F1xx_HAL_Driver/Src/stm32f1xx_hal_adc_ex.c ****     /* Set the DMA error callback */
ARM GAS  /tmp/cc0wYaIi.s 			page 32


 757:Drivers/STM32F1xx_HAL_Driver/Src/stm32f1xx_hal_adc_ex.c ****     hadc->DMA_Handle->XferErrorCallback = ADC_DMAError;
 1002              		.loc 1 757 0
 1003 0084 3B6A     		ldr	r3, [r7, #32]
 1004 0086 194A     		ldr	r2, .L99+16
 1005 0088 1A63     		str	r2, [r3, #48]
 758:Drivers/STM32F1xx_HAL_Driver/Src/stm32f1xx_hal_adc_ex.c **** 
 759:Drivers/STM32F1xx_HAL_Driver/Src/stm32f1xx_hal_adc_ex.c ****     
 760:Drivers/STM32F1xx_HAL_Driver/Src/stm32f1xx_hal_adc_ex.c ****     /* Manage ADC and DMA start: ADC overrun interruption, DMA start, ADC     */
 761:Drivers/STM32F1xx_HAL_Driver/Src/stm32f1xx_hal_adc_ex.c ****     /* start (in case of SW start):                                           */
 762:Drivers/STM32F1xx_HAL_Driver/Src/stm32f1xx_hal_adc_ex.c ****     
 763:Drivers/STM32F1xx_HAL_Driver/Src/stm32f1xx_hal_adc_ex.c ****     /* Clear regular group conversion flag and overrun flag */
 764:Drivers/STM32F1xx_HAL_Driver/Src/stm32f1xx_hal_adc_ex.c ****     /* (To ensure of no unknown state from potential previous ADC operations) */
 765:Drivers/STM32F1xx_HAL_Driver/Src/stm32f1xx_hal_adc_ex.c ****     __HAL_ADC_CLEAR_FLAG(hadc, ADC_FLAG_EOC);
 1006              		.loc 1 765 0
 1007 008a 3B68     		ldr	r3, [r7]
 1008 008c 6FF00202 		mvn	r2, #2
 1009 0090 1A60     		str	r2, [r3]
 766:Drivers/STM32F1xx_HAL_Driver/Src/stm32f1xx_hal_adc_ex.c ****     
 767:Drivers/STM32F1xx_HAL_Driver/Src/stm32f1xx_hal_adc_ex.c ****     /* Enable ADC DMA mode of ADC master */
 768:Drivers/STM32F1xx_HAL_Driver/Src/stm32f1xx_hal_adc_ex.c ****     SET_BIT(hadc->Instance->CR2, ADC_CR2_DMA);
 1010              		.loc 1 768 0
 1011 0092 3A68     		ldr	r2, [r7]
 1012 0094 9368     		ldr	r3, [r2, #8]
 1013 0096 43F48073 		orr	r3, r3, #256
 1014 009a 9360     		str	r3, [r2, #8]
 769:Drivers/STM32F1xx_HAL_Driver/Src/stm32f1xx_hal_adc_ex.c ****     
 770:Drivers/STM32F1xx_HAL_Driver/Src/stm32f1xx_hal_adc_ex.c ****     /* Start the DMA channel */
 771:Drivers/STM32F1xx_HAL_Driver/Src/stm32f1xx_hal_adc_ex.c ****     HAL_DMA_Start_IT(hadc->DMA_Handle, (uint32_t)&hadc->Instance->DR, (uint32_t)pData, Length);
 1015              		.loc 1 771 0
 1016 009c 3968     		ldr	r1, [r7]
 1017 009e 386A     		ldr	r0, [r7, #32]
 1018 00a0 4C31     		adds	r1, r1, #76
 1019 00a2 2A46     		mov	r2, r5
 1020 00a4 3346     		mov	r3, r6
 1021 00a6 FFF7FEFF 		bl	HAL_DMA_Start_IT
 1022              	.LVL62:
 772:Drivers/STM32F1xx_HAL_Driver/Src/stm32f1xx_hal_adc_ex.c ****     
 773:Drivers/STM32F1xx_HAL_Driver/Src/stm32f1xx_hal_adc_ex.c ****     /* Start conversion of regular group if software start has been selected. */
 774:Drivers/STM32F1xx_HAL_Driver/Src/stm32f1xx_hal_adc_ex.c ****     /* If external trigger has been selected, conversion will start at next   */
 775:Drivers/STM32F1xx_HAL_Driver/Src/stm32f1xx_hal_adc_ex.c ****     /* trigger event.                                                         */
 776:Drivers/STM32F1xx_HAL_Driver/Src/stm32f1xx_hal_adc_ex.c ****     /* Note: Alternate trigger for single conversion could be to force an     */
 777:Drivers/STM32F1xx_HAL_Driver/Src/stm32f1xx_hal_adc_ex.c ****     /*       additional set of bit ADON "hadc->Instance->CR2 |= ADC_CR2_ADON;"*/
 778:Drivers/STM32F1xx_HAL_Driver/Src/stm32f1xx_hal_adc_ex.c ****     if (ADC_IS_SOFTWARE_START_REGULAR(hadc))
 1023              		.loc 1 778 0
 1024 00aa 3B68     		ldr	r3, [r7]
 1025 00ac 9A68     		ldr	r2, [r3, #8]
 1026 00ae 02F46022 		and	r2, r2, #917504
 1027 00b2 B2F5602F 		cmp	r2, #917504
 1028 00b6 04D1     		bne	.L95
 779:Drivers/STM32F1xx_HAL_Driver/Src/stm32f1xx_hal_adc_ex.c ****     {
 780:Drivers/STM32F1xx_HAL_Driver/Src/stm32f1xx_hal_adc_ex.c ****       /* Start ADC conversion on regular group with SW start */
 781:Drivers/STM32F1xx_HAL_Driver/Src/stm32f1xx_hal_adc_ex.c ****       SET_BIT(hadc->Instance->CR2, (ADC_CR2_SWSTART | ADC_CR2_EXTTRIG));
 1029              		.loc 1 781 0
 1030 00b8 9A68     		ldr	r2, [r3, #8]
 1031 00ba 42F4A002 		orr	r2, r2, #5242880
 1032 00be 9A60     		str	r2, [r3, #8]
 1033 00c0 07E0     		b	.L96
ARM GAS  /tmp/cc0wYaIi.s 			page 33


 1034              	.L95:
 782:Drivers/STM32F1xx_HAL_Driver/Src/stm32f1xx_hal_adc_ex.c ****     }
 783:Drivers/STM32F1xx_HAL_Driver/Src/stm32f1xx_hal_adc_ex.c ****     else
 784:Drivers/STM32F1xx_HAL_Driver/Src/stm32f1xx_hal_adc_ex.c ****     {
 785:Drivers/STM32F1xx_HAL_Driver/Src/stm32f1xx_hal_adc_ex.c ****       /* Start ADC conversion on regular group with external trigger */
 786:Drivers/STM32F1xx_HAL_Driver/Src/stm32f1xx_hal_adc_ex.c ****       SET_BIT(hadc->Instance->CR2, ADC_CR2_EXTTRIG);
 1035              		.loc 1 786 0
 1036 00c2 9A68     		ldr	r2, [r3, #8]
 1037 00c4 42F48012 		orr	r2, r2, #1048576
 1038 00c8 9A60     		str	r2, [r3, #8]
 1039 00ca 02E0     		b	.L96
 1040              	.L93:
 787:Drivers/STM32F1xx_HAL_Driver/Src/stm32f1xx_hal_adc_ex.c ****     }
 788:Drivers/STM32F1xx_HAL_Driver/Src/stm32f1xx_hal_adc_ex.c ****   }
 789:Drivers/STM32F1xx_HAL_Driver/Src/stm32f1xx_hal_adc_ex.c ****   else
 790:Drivers/STM32F1xx_HAL_Driver/Src/stm32f1xx_hal_adc_ex.c ****   {
 791:Drivers/STM32F1xx_HAL_Driver/Src/stm32f1xx_hal_adc_ex.c ****     /* Process unlocked */
 792:Drivers/STM32F1xx_HAL_Driver/Src/stm32f1xx_hal_adc_ex.c ****     __HAL_UNLOCK(hadc);
 1041              		.loc 1 792 0
 1042 00cc 0023     		movs	r3, #0
 1043 00ce 87F82430 		strb	r3, [r7, #36]
 1044              	.L96:
 793:Drivers/STM32F1xx_HAL_Driver/Src/stm32f1xx_hal_adc_ex.c ****   }
 794:Drivers/STM32F1xx_HAL_Driver/Src/stm32f1xx_hal_adc_ex.c ****   
 795:Drivers/STM32F1xx_HAL_Driver/Src/stm32f1xx_hal_adc_ex.c ****   /* Return function status */
 796:Drivers/STM32F1xx_HAL_Driver/Src/stm32f1xx_hal_adc_ex.c ****   return tmp_hal_status;
 1045              		.loc 1 796 0
 1046 00d2 2046     		mov	r0, r4
 1047 00d4 00E0     		b	.L90
 1048              	.LVL63:
 1049              	.L97:
 696:Drivers/STM32F1xx_HAL_Driver/Src/stm32f1xx_hal_adc_ex.c **** 
 1050              		.loc 1 696 0
 1051 00d6 0220     		movs	r0, #2
 1052              	.LVL64:
 1053              	.L90:
 797:Drivers/STM32F1xx_HAL_Driver/Src/stm32f1xx_hal_adc_ex.c **** }
 1054              		.loc 1 797 0
 1055 00d8 0DB0     		add	sp, sp, #52
 1056              	.LCFI16:
 1057              		.cfi_def_cfa_offset 20
 1058              		@ sp needed
 1059 00da F0BD     		pop	{r4, r5, r6, r7, pc}
 1060              	.L100:
 1061              		.align	2
 1062              	.L99:
 1063 00dc 00280140 		.word	1073817600
 1064 00e0 FEFCEFFF 		.word	-1049346
 1065 00e4 00000000 		.word	ADC_DMAConvCplt
 1066 00e8 00000000 		.word	ADC_DMAHalfConvCplt
 1067 00ec 00000000 		.word	ADC_DMAError
 1068              		.cfi_endproc
 1069              	.LFE69:
 1071              		.section	.text.HAL_ADCEx_MultiModeStop_DMA,"ax",%progbits
 1072              		.align	2
 1073              		.global	HAL_ADCEx_MultiModeStop_DMA
 1074              		.thumb
ARM GAS  /tmp/cc0wYaIi.s 			page 34


 1075              		.thumb_func
 1077              	HAL_ADCEx_MultiModeStop_DMA:
 1078              	.LFB70:
 798:Drivers/STM32F1xx_HAL_Driver/Src/stm32f1xx_hal_adc_ex.c **** 
 799:Drivers/STM32F1xx_HAL_Driver/Src/stm32f1xx_hal_adc_ex.c **** /**
 800:Drivers/STM32F1xx_HAL_Driver/Src/stm32f1xx_hal_adc_ex.c ****   * @brief  Stop ADC conversion of regular group (and injected channels in 
 801:Drivers/STM32F1xx_HAL_Driver/Src/stm32f1xx_hal_adc_ex.c ****   *         case of auto_injection mode), disable ADC DMA transfer, disable 
 802:Drivers/STM32F1xx_HAL_Driver/Src/stm32f1xx_hal_adc_ex.c ****   *         ADC peripheral.
 803:Drivers/STM32F1xx_HAL_Driver/Src/stm32f1xx_hal_adc_ex.c ****   * @note   Multimode is kept enabled after this function. To disable multimode 
 804:Drivers/STM32F1xx_HAL_Driver/Src/stm32f1xx_hal_adc_ex.c ****   *         (set with HAL_ADCEx_MultiModeConfigChannel(), ADC must be 
 805:Drivers/STM32F1xx_HAL_Driver/Src/stm32f1xx_hal_adc_ex.c ****   *         reinitialized using HAL_ADC_Init() or HAL_ADC_ReInit().
 806:Drivers/STM32F1xx_HAL_Driver/Src/stm32f1xx_hal_adc_ex.c ****   * @note   In case of DMA configured in circular mode, function 
 807:Drivers/STM32F1xx_HAL_Driver/Src/stm32f1xx_hal_adc_ex.c ****   *         HAL_ADC_Stop_DMA must be called after this function with handle of
 808:Drivers/STM32F1xx_HAL_Driver/Src/stm32f1xx_hal_adc_ex.c ****   *         ADC slave, to properly disable the DMA channel.
 809:Drivers/STM32F1xx_HAL_Driver/Src/stm32f1xx_hal_adc_ex.c ****   * @param  hadc: ADC handle of ADC master (handle of ADC slave must not be used)
 810:Drivers/STM32F1xx_HAL_Driver/Src/stm32f1xx_hal_adc_ex.c ****   * @retval None
 811:Drivers/STM32F1xx_HAL_Driver/Src/stm32f1xx_hal_adc_ex.c ****   */
 812:Drivers/STM32F1xx_HAL_Driver/Src/stm32f1xx_hal_adc_ex.c **** HAL_StatusTypeDef HAL_ADCEx_MultiModeStop_DMA(ADC_HandleTypeDef* hadc)
 813:Drivers/STM32F1xx_HAL_Driver/Src/stm32f1xx_hal_adc_ex.c **** {
 1079              		.loc 1 813 0
 1080              		.cfi_startproc
 1081              		@ args = 0, pretend = 0, frame = 48
 1082              		@ frame_needed = 0, uses_anonymous_args = 0
 1083              	.LVL65:
 814:Drivers/STM32F1xx_HAL_Driver/Src/stm32f1xx_hal_adc_ex.c ****   HAL_StatusTypeDef tmp_hal_status = HAL_OK;
 815:Drivers/STM32F1xx_HAL_Driver/Src/stm32f1xx_hal_adc_ex.c ****   ADC_HandleTypeDef tmphadcSlave;
 816:Drivers/STM32F1xx_HAL_Driver/Src/stm32f1xx_hal_adc_ex.c ****   
 817:Drivers/STM32F1xx_HAL_Driver/Src/stm32f1xx_hal_adc_ex.c ****   /* Check the parameters */
 818:Drivers/STM32F1xx_HAL_Driver/Src/stm32f1xx_hal_adc_ex.c ****   assert_param(IS_ADC_MULTIMODE_MASTER_INSTANCE(hadc->Instance));
 819:Drivers/STM32F1xx_HAL_Driver/Src/stm32f1xx_hal_adc_ex.c ****   
 820:Drivers/STM32F1xx_HAL_Driver/Src/stm32f1xx_hal_adc_ex.c ****   /* Process locked */
 821:Drivers/STM32F1xx_HAL_Driver/Src/stm32f1xx_hal_adc_ex.c ****   __HAL_LOCK(hadc);
 1084              		.loc 1 821 0
 1085 0000 90F82430 		ldrb	r3, [r0, #36]	@ zero_extendqisi2
 1086 0004 012B     		cmp	r3, #1
 1087 0006 34D0     		beq	.L105
 813:Drivers/STM32F1xx_HAL_Driver/Src/stm32f1xx_hal_adc_ex.c ****   HAL_StatusTypeDef tmp_hal_status = HAL_OK;
 1088              		.loc 1 813 0 discriminator 2
 1089 0008 10B5     		push	{r4, lr}
 1090              	.LCFI17:
 1091              		.cfi_def_cfa_offset 8
 1092              		.cfi_offset 4, -8
 1093              		.cfi_offset 14, -4
 1094 000a 8CB0     		sub	sp, sp, #48
 1095              	.LCFI18:
 1096              		.cfi_def_cfa_offset 56
 1097 000c 0446     		mov	r4, r0
 1098              		.loc 1 821 0 discriminator 2
 1099 000e 0123     		movs	r3, #1
 1100 0010 80F82430 		strb	r3, [r0, #36]
 822:Drivers/STM32F1xx_HAL_Driver/Src/stm32f1xx_hal_adc_ex.c ****   
 823:Drivers/STM32F1xx_HAL_Driver/Src/stm32f1xx_hal_adc_ex.c ****  
 824:Drivers/STM32F1xx_HAL_Driver/Src/stm32f1xx_hal_adc_ex.c ****   /* Stop potential conversion on going, on regular and injected groups */
 825:Drivers/STM32F1xx_HAL_Driver/Src/stm32f1xx_hal_adc_ex.c ****   /* Disable ADC master peripheral */
 826:Drivers/STM32F1xx_HAL_Driver/Src/stm32f1xx_hal_adc_ex.c ****   tmp_hal_status = ADC_ConversionStop_Disable(hadc);
 1101              		.loc 1 826 0 discriminator 2
 1102 0014 FFF7FEFF 		bl	ADC_ConversionStop_Disable
ARM GAS  /tmp/cc0wYaIi.s 			page 35


 1103              	.LVL66:
 827:Drivers/STM32F1xx_HAL_Driver/Src/stm32f1xx_hal_adc_ex.c ****   
 828:Drivers/STM32F1xx_HAL_Driver/Src/stm32f1xx_hal_adc_ex.c ****   /* Check if ADC is effectively disabled */
 829:Drivers/STM32F1xx_HAL_Driver/Src/stm32f1xx_hal_adc_ex.c ****   if(tmp_hal_status == HAL_OK)
 1104              		.loc 1 829 0 discriminator 2
 1105 0018 0346     		mov	r3, r0
 1106 001a 28BB     		cbnz	r0, .L103
 830:Drivers/STM32F1xx_HAL_Driver/Src/stm32f1xx_hal_adc_ex.c ****   {
 831:Drivers/STM32F1xx_HAL_Driver/Src/stm32f1xx_hal_adc_ex.c ****     /* Set a temporary handle of the ADC slave associated to the ADC master   */
 832:Drivers/STM32F1xx_HAL_Driver/Src/stm32f1xx_hal_adc_ex.c ****     ADC_MULTI_SLAVE(hadc, &tmphadcSlave);
 1107              		.loc 1 832 0
 1108 001c 0CA8     		add	r0, sp, #48
 1109              	.LVL67:
 1110 001e 174B     		ldr	r3, .L108
 1111 0020 40F8303D 		str	r3, [r0, #-48]!
 833:Drivers/STM32F1xx_HAL_Driver/Src/stm32f1xx_hal_adc_ex.c **** 
 834:Drivers/STM32F1xx_HAL_Driver/Src/stm32f1xx_hal_adc_ex.c ****     /* Disable ADC slave peripheral */
 835:Drivers/STM32F1xx_HAL_Driver/Src/stm32f1xx_hal_adc_ex.c ****     tmp_hal_status = ADC_ConversionStop_Disable(&tmphadcSlave);
 1112              		.loc 1 835 0
 1113 0024 FFF7FEFF 		bl	ADC_ConversionStop_Disable
 1114              	.LVL68:
 836:Drivers/STM32F1xx_HAL_Driver/Src/stm32f1xx_hal_adc_ex.c **** 
 837:Drivers/STM32F1xx_HAL_Driver/Src/stm32f1xx_hal_adc_ex.c ****     /* Check if ADC is effectively disabled */
 838:Drivers/STM32F1xx_HAL_Driver/Src/stm32f1xx_hal_adc_ex.c ****     if(tmp_hal_status != HAL_OK)
 1115              		.loc 1 838 0
 1116 0028 40B1     		cbz	r0, .L104
 839:Drivers/STM32F1xx_HAL_Driver/Src/stm32f1xx_hal_adc_ex.c ****     {
 840:Drivers/STM32F1xx_HAL_Driver/Src/stm32f1xx_hal_adc_ex.c ****       /* Update ADC state machine to error */
 841:Drivers/STM32F1xx_HAL_Driver/Src/stm32f1xx_hal_adc_ex.c ****       SET_BIT(hadc->State, HAL_ADC_STATE_ERROR_INTERNAL);
 1117              		.loc 1 841 0
 1118 002a A36A     		ldr	r3, [r4, #40]
 1119 002c 43F01003 		orr	r3, r3, #16
 1120 0030 A362     		str	r3, [r4, #40]
 842:Drivers/STM32F1xx_HAL_Driver/Src/stm32f1xx_hal_adc_ex.c **** 
 843:Drivers/STM32F1xx_HAL_Driver/Src/stm32f1xx_hal_adc_ex.c ****       /* Process unlocked */
 844:Drivers/STM32F1xx_HAL_Driver/Src/stm32f1xx_hal_adc_ex.c ****       __HAL_UNLOCK(hadc);
 1121              		.loc 1 844 0
 1122 0032 0023     		movs	r3, #0
 1123 0034 84F82430 		strb	r3, [r4, #36]
 845:Drivers/STM32F1xx_HAL_Driver/Src/stm32f1xx_hal_adc_ex.c **** 
 846:Drivers/STM32F1xx_HAL_Driver/Src/stm32f1xx_hal_adc_ex.c ****       return HAL_ERROR;
 1124              		.loc 1 846 0
 1125 0038 0120     		movs	r0, #1
 1126              	.LVL69:
 1127 003a 1CE0     		b	.L102
 1128              	.LVL70:
 1129              	.L104:
 847:Drivers/STM32F1xx_HAL_Driver/Src/stm32f1xx_hal_adc_ex.c ****     }
 848:Drivers/STM32F1xx_HAL_Driver/Src/stm32f1xx_hal_adc_ex.c **** 
 849:Drivers/STM32F1xx_HAL_Driver/Src/stm32f1xx_hal_adc_ex.c ****     /* Disable ADC DMA mode */
 850:Drivers/STM32F1xx_HAL_Driver/Src/stm32f1xx_hal_adc_ex.c ****     CLEAR_BIT(hadc->Instance->CR2, ADC_CR2_DMA);
 1130              		.loc 1 850 0
 1131 003c 2268     		ldr	r2, [r4]
 1132 003e 9368     		ldr	r3, [r2, #8]
 1133 0040 23F48073 		bic	r3, r3, #256
 1134 0044 9360     		str	r3, [r2, #8]
 851:Drivers/STM32F1xx_HAL_Driver/Src/stm32f1xx_hal_adc_ex.c ****     
ARM GAS  /tmp/cc0wYaIi.s 			page 36


 852:Drivers/STM32F1xx_HAL_Driver/Src/stm32f1xx_hal_adc_ex.c ****     /* Reset configuration of ADC DMA continuous request for dual mode */
 853:Drivers/STM32F1xx_HAL_Driver/Src/stm32f1xx_hal_adc_ex.c ****     CLEAR_BIT(hadc->Instance->CR1, ADC_CR1_DUALMOD);
 1135              		.loc 1 853 0
 1136 0046 2268     		ldr	r2, [r4]
 1137 0048 5368     		ldr	r3, [r2, #4]
 1138 004a 23F47023 		bic	r3, r3, #983040
 1139 004e 5360     		str	r3, [r2, #4]
 854:Drivers/STM32F1xx_HAL_Driver/Src/stm32f1xx_hal_adc_ex.c ****         
 855:Drivers/STM32F1xx_HAL_Driver/Src/stm32f1xx_hal_adc_ex.c ****     /* Disable the DMA channel (in case of DMA in circular mode or stop while */
 856:Drivers/STM32F1xx_HAL_Driver/Src/stm32f1xx_hal_adc_ex.c ****     /* while DMA transfer is on going)                                        */
 857:Drivers/STM32F1xx_HAL_Driver/Src/stm32f1xx_hal_adc_ex.c ****     tmp_hal_status = HAL_DMA_Abort(hadc->DMA_Handle);
 1140              		.loc 1 857 0
 1141 0050 206A     		ldr	r0, [r4, #32]
 1142              	.LVL71:
 1143 0052 FFF7FEFF 		bl	HAL_DMA_Abort
 1144              	.LVL72:
 1145 0056 0346     		mov	r3, r0
 1146              	.LVL73:
 858:Drivers/STM32F1xx_HAL_Driver/Src/stm32f1xx_hal_adc_ex.c **** 
 859:Drivers/STM32F1xx_HAL_Driver/Src/stm32f1xx_hal_adc_ex.c ****     /* Change ADC state (ADC master) */
 860:Drivers/STM32F1xx_HAL_Driver/Src/stm32f1xx_hal_adc_ex.c ****     ADC_STATE_CLR_SET(hadc->State,
 1147              		.loc 1 860 0
 1148 0058 A26A     		ldr	r2, [r4, #40]
 1149 005a 22F48852 		bic	r2, r2, #4352
 1150 005e 22F00102 		bic	r2, r2, #1
 1151 0062 42F00102 		orr	r2, r2, #1
 1152 0066 A262     		str	r2, [r4, #40]
 1153              	.LVL74:
 1154              	.L103:
 861:Drivers/STM32F1xx_HAL_Driver/Src/stm32f1xx_hal_adc_ex.c ****                       HAL_ADC_STATE_REG_BUSY | HAL_ADC_STATE_INJ_BUSY,
 862:Drivers/STM32F1xx_HAL_Driver/Src/stm32f1xx_hal_adc_ex.c ****                       HAL_ADC_STATE_READY);
 863:Drivers/STM32F1xx_HAL_Driver/Src/stm32f1xx_hal_adc_ex.c ****   }
 864:Drivers/STM32F1xx_HAL_Driver/Src/stm32f1xx_hal_adc_ex.c ****   
 865:Drivers/STM32F1xx_HAL_Driver/Src/stm32f1xx_hal_adc_ex.c ****   /* Process unlocked */
 866:Drivers/STM32F1xx_HAL_Driver/Src/stm32f1xx_hal_adc_ex.c ****   __HAL_UNLOCK(hadc);
 1155              		.loc 1 866 0
 1156 0068 0022     		movs	r2, #0
 1157 006a 84F82420 		strb	r2, [r4, #36]
 867:Drivers/STM32F1xx_HAL_Driver/Src/stm32f1xx_hal_adc_ex.c ****   
 868:Drivers/STM32F1xx_HAL_Driver/Src/stm32f1xx_hal_adc_ex.c ****   /* Return function status */
 869:Drivers/STM32F1xx_HAL_Driver/Src/stm32f1xx_hal_adc_ex.c ****   return tmp_hal_status;
 1158              		.loc 1 869 0
 1159 006e 1846     		mov	r0, r3
 1160 0070 01E0     		b	.L102
 1161              	.LVL75:
 1162              	.L105:
 1163              	.LCFI19:
 1164              		.cfi_def_cfa_offset 0
 1165              		.cfi_restore 4
 1166              		.cfi_restore 14
 821:Drivers/STM32F1xx_HAL_Driver/Src/stm32f1xx_hal_adc_ex.c ****   
 1167              		.loc 1 821 0
 1168 0072 0220     		movs	r0, #2
 1169              	.LVL76:
 1170 0074 7047     		bx	lr
 1171              	.LVL77:
 1172              	.L102:
ARM GAS  /tmp/cc0wYaIi.s 			page 37


 1173              	.LCFI20:
 1174              		.cfi_def_cfa_offset 56
 1175              		.cfi_offset 4, -8
 1176              		.cfi_offset 14, -4
 870:Drivers/STM32F1xx_HAL_Driver/Src/stm32f1xx_hal_adc_ex.c **** }
 1177              		.loc 1 870 0
 1178 0076 0CB0     		add	sp, sp, #48
 1179              	.LCFI21:
 1180              		.cfi_def_cfa_offset 8
 1181              		@ sp needed
 1182 0078 10BD     		pop	{r4, pc}
 1183              	.LVL78:
 1184              	.L109:
 1185 007a 00BF     		.align	2
 1186              	.L108:
 1187 007c 00280140 		.word	1073817600
 1188              		.cfi_endproc
 1189              	.LFE70:
 1191              		.section	.text.HAL_ADCEx_InjectedGetValue,"ax",%progbits
 1192              		.align	2
 1193              		.global	HAL_ADCEx_InjectedGetValue
 1194              		.thumb
 1195              		.thumb_func
 1197              	HAL_ADCEx_InjectedGetValue:
 1198              	.LFB71:
 871:Drivers/STM32F1xx_HAL_Driver/Src/stm32f1xx_hal_adc_ex.c **** #endif /* defined STM32F103x6 || defined STM32F103xB || defined STM32F105xC || defined STM32F107xC 
 872:Drivers/STM32F1xx_HAL_Driver/Src/stm32f1xx_hal_adc_ex.c **** 
 873:Drivers/STM32F1xx_HAL_Driver/Src/stm32f1xx_hal_adc_ex.c **** /**
 874:Drivers/STM32F1xx_HAL_Driver/Src/stm32f1xx_hal_adc_ex.c ****   * @brief  Get ADC injected group conversion result.
 875:Drivers/STM32F1xx_HAL_Driver/Src/stm32f1xx_hal_adc_ex.c ****   * @note   Reading register JDRx automatically clears ADC flag JEOC
 876:Drivers/STM32F1xx_HAL_Driver/Src/stm32f1xx_hal_adc_ex.c ****   *         (ADC group injected end of unitary conversion).
 877:Drivers/STM32F1xx_HAL_Driver/Src/stm32f1xx_hal_adc_ex.c ****   * @note   This function does not clear ADC flag JEOS 
 878:Drivers/STM32F1xx_HAL_Driver/Src/stm32f1xx_hal_adc_ex.c ****   *         (ADC group injected end of sequence conversion)
 879:Drivers/STM32F1xx_HAL_Driver/Src/stm32f1xx_hal_adc_ex.c ****   *         Occurrence of flag JEOS rising:
 880:Drivers/STM32F1xx_HAL_Driver/Src/stm32f1xx_hal_adc_ex.c ****   *          - If sequencer is composed of 1 rank, flag JEOS is equivalent
 881:Drivers/STM32F1xx_HAL_Driver/Src/stm32f1xx_hal_adc_ex.c ****   *            to flag JEOC.
 882:Drivers/STM32F1xx_HAL_Driver/Src/stm32f1xx_hal_adc_ex.c ****   *          - If sequencer is composed of several ranks, during the scan
 883:Drivers/STM32F1xx_HAL_Driver/Src/stm32f1xx_hal_adc_ex.c ****   *            sequence flag JEOC only is raised, at the end of the scan sequence
 884:Drivers/STM32F1xx_HAL_Driver/Src/stm32f1xx_hal_adc_ex.c ****   *            both flags JEOC and EOS are raised.
 885:Drivers/STM32F1xx_HAL_Driver/Src/stm32f1xx_hal_adc_ex.c ****   *         Flag JEOS must not be cleared by this function because
 886:Drivers/STM32F1xx_HAL_Driver/Src/stm32f1xx_hal_adc_ex.c ****   *         it would not be compliant with low power features
 887:Drivers/STM32F1xx_HAL_Driver/Src/stm32f1xx_hal_adc_ex.c ****   *         (feature low power auto-wait, not available on all STM32 families).
 888:Drivers/STM32F1xx_HAL_Driver/Src/stm32f1xx_hal_adc_ex.c ****   *         To clear this flag, either use function: 
 889:Drivers/STM32F1xx_HAL_Driver/Src/stm32f1xx_hal_adc_ex.c ****   *         in programming model IT: @ref HAL_ADC_IRQHandler(), in programming
 890:Drivers/STM32F1xx_HAL_Driver/Src/stm32f1xx_hal_adc_ex.c ****   *         model polling: @ref HAL_ADCEx_InjectedPollForConversion() 
 891:Drivers/STM32F1xx_HAL_Driver/Src/stm32f1xx_hal_adc_ex.c ****   *         or @ref __HAL_ADC_CLEAR_FLAG(&hadc, ADC_FLAG_JEOS).
 892:Drivers/STM32F1xx_HAL_Driver/Src/stm32f1xx_hal_adc_ex.c ****   * @param  hadc: ADC handle
 893:Drivers/STM32F1xx_HAL_Driver/Src/stm32f1xx_hal_adc_ex.c ****   * @param  InjectedRank: the converted ADC injected rank.
 894:Drivers/STM32F1xx_HAL_Driver/Src/stm32f1xx_hal_adc_ex.c ****   *          This parameter can be one of the following values:
 895:Drivers/STM32F1xx_HAL_Driver/Src/stm32f1xx_hal_adc_ex.c ****   *            @arg ADC_INJECTED_RANK_1: Injected Channel1 selected
 896:Drivers/STM32F1xx_HAL_Driver/Src/stm32f1xx_hal_adc_ex.c ****   *            @arg ADC_INJECTED_RANK_2: Injected Channel2 selected
 897:Drivers/STM32F1xx_HAL_Driver/Src/stm32f1xx_hal_adc_ex.c ****   *            @arg ADC_INJECTED_RANK_3: Injected Channel3 selected
 898:Drivers/STM32F1xx_HAL_Driver/Src/stm32f1xx_hal_adc_ex.c ****   *            @arg ADC_INJECTED_RANK_4: Injected Channel4 selected
 899:Drivers/STM32F1xx_HAL_Driver/Src/stm32f1xx_hal_adc_ex.c ****   * @retval ADC group injected conversion data
 900:Drivers/STM32F1xx_HAL_Driver/Src/stm32f1xx_hal_adc_ex.c ****   */
 901:Drivers/STM32F1xx_HAL_Driver/Src/stm32f1xx_hal_adc_ex.c **** uint32_t HAL_ADCEx_InjectedGetValue(ADC_HandleTypeDef* hadc, uint32_t InjectedRank)
 902:Drivers/STM32F1xx_HAL_Driver/Src/stm32f1xx_hal_adc_ex.c **** {
ARM GAS  /tmp/cc0wYaIi.s 			page 38


 1199              		.loc 1 902 0
 1200              		.cfi_startproc
 1201              		@ args = 0, pretend = 0, frame = 0
 1202              		@ frame_needed = 0, uses_anonymous_args = 0
 1203              		@ link register save eliminated.
 1204              	.LVL79:
 903:Drivers/STM32F1xx_HAL_Driver/Src/stm32f1xx_hal_adc_ex.c ****   uint32_t tmp_jdr = 0U;
 904:Drivers/STM32F1xx_HAL_Driver/Src/stm32f1xx_hal_adc_ex.c ****   
 905:Drivers/STM32F1xx_HAL_Driver/Src/stm32f1xx_hal_adc_ex.c ****   /* Check the parameters */
 906:Drivers/STM32F1xx_HAL_Driver/Src/stm32f1xx_hal_adc_ex.c ****   assert_param(IS_ADC_ALL_INSTANCE(hadc->Instance));
 907:Drivers/STM32F1xx_HAL_Driver/Src/stm32f1xx_hal_adc_ex.c ****   assert_param(IS_ADC_INJECTED_RANK(InjectedRank));
 908:Drivers/STM32F1xx_HAL_Driver/Src/stm32f1xx_hal_adc_ex.c ****   
 909:Drivers/STM32F1xx_HAL_Driver/Src/stm32f1xx_hal_adc_ex.c ****   /* Get ADC converted value */ 
 910:Drivers/STM32F1xx_HAL_Driver/Src/stm32f1xx_hal_adc_ex.c ****   switch(InjectedRank)
 1205              		.loc 1 910 0
 1206 0000 0329     		cmp	r1, #3
 1207 0002 07D0     		beq	.L112
 1208 0004 0429     		cmp	r1, #4
 1209 0006 02D0     		beq	.L113
 1210 0008 0229     		cmp	r1, #2
 1211 000a 09D1     		bne	.L116
 1212 000c 05E0     		b	.L114
 1213              	.L113:
 911:Drivers/STM32F1xx_HAL_Driver/Src/stm32f1xx_hal_adc_ex.c ****   {  
 912:Drivers/STM32F1xx_HAL_Driver/Src/stm32f1xx_hal_adc_ex.c ****     case ADC_INJECTED_RANK_4: 
 913:Drivers/STM32F1xx_HAL_Driver/Src/stm32f1xx_hal_adc_ex.c ****       tmp_jdr = hadc->Instance->JDR4;
 1214              		.loc 1 913 0
 1215 000e 0368     		ldr	r3, [r0]
 1216 0010 986C     		ldr	r0, [r3, #72]
 1217              	.LVL80:
 914:Drivers/STM32F1xx_HAL_Driver/Src/stm32f1xx_hal_adc_ex.c ****       break;
 1218              		.loc 1 914 0
 1219 0012 7047     		bx	lr
 1220              	.LVL81:
 1221              	.L112:
 915:Drivers/STM32F1xx_HAL_Driver/Src/stm32f1xx_hal_adc_ex.c ****     case ADC_INJECTED_RANK_3: 
 916:Drivers/STM32F1xx_HAL_Driver/Src/stm32f1xx_hal_adc_ex.c ****       tmp_jdr = hadc->Instance->JDR3;
 1222              		.loc 1 916 0
 1223 0014 0368     		ldr	r3, [r0]
 1224 0016 586C     		ldr	r0, [r3, #68]
 1225              	.LVL82:
 917:Drivers/STM32F1xx_HAL_Driver/Src/stm32f1xx_hal_adc_ex.c ****       break;
 1226              		.loc 1 917 0
 1227 0018 7047     		bx	lr
 1228              	.LVL83:
 1229              	.L114:
 918:Drivers/STM32F1xx_HAL_Driver/Src/stm32f1xx_hal_adc_ex.c ****     case ADC_INJECTED_RANK_2: 
 919:Drivers/STM32F1xx_HAL_Driver/Src/stm32f1xx_hal_adc_ex.c ****       tmp_jdr = hadc->Instance->JDR2;
 1230              		.loc 1 919 0
 1231 001a 0368     		ldr	r3, [r0]
 1232 001c 186C     		ldr	r0, [r3, #64]
 1233              	.LVL84:
 920:Drivers/STM32F1xx_HAL_Driver/Src/stm32f1xx_hal_adc_ex.c ****       break;
 1234              		.loc 1 920 0
 1235 001e 7047     		bx	lr
 1236              	.LVL85:
 1237              	.L116:
ARM GAS  /tmp/cc0wYaIi.s 			page 39


 921:Drivers/STM32F1xx_HAL_Driver/Src/stm32f1xx_hal_adc_ex.c ****     case ADC_INJECTED_RANK_1:
 922:Drivers/STM32F1xx_HAL_Driver/Src/stm32f1xx_hal_adc_ex.c ****     default:
 923:Drivers/STM32F1xx_HAL_Driver/Src/stm32f1xx_hal_adc_ex.c ****       tmp_jdr = hadc->Instance->JDR1;
 1238              		.loc 1 923 0
 1239 0020 0368     		ldr	r3, [r0]
 1240 0022 D86B     		ldr	r0, [r3, #60]
 1241              	.LVL86:
 924:Drivers/STM32F1xx_HAL_Driver/Src/stm32f1xx_hal_adc_ex.c ****       break;
 925:Drivers/STM32F1xx_HAL_Driver/Src/stm32f1xx_hal_adc_ex.c ****   }
 926:Drivers/STM32F1xx_HAL_Driver/Src/stm32f1xx_hal_adc_ex.c ****   
 927:Drivers/STM32F1xx_HAL_Driver/Src/stm32f1xx_hal_adc_ex.c ****   /* Return ADC converted value */ 
 928:Drivers/STM32F1xx_HAL_Driver/Src/stm32f1xx_hal_adc_ex.c ****   return tmp_jdr;
 929:Drivers/STM32F1xx_HAL_Driver/Src/stm32f1xx_hal_adc_ex.c **** }
 1242              		.loc 1 929 0
 1243 0024 7047     		bx	lr
 1244              		.cfi_endproc
 1245              	.LFE71:
 1247 0026 00BF     		.section	.text.HAL_ADCEx_MultiModeGetValue,"ax",%progbits
 1248              		.align	2
 1249              		.global	HAL_ADCEx_MultiModeGetValue
 1250              		.thumb
 1251              		.thumb_func
 1253              	HAL_ADCEx_MultiModeGetValue:
 1254              	.LFB72:
 930:Drivers/STM32F1xx_HAL_Driver/Src/stm32f1xx_hal_adc_ex.c **** 
 931:Drivers/STM32F1xx_HAL_Driver/Src/stm32f1xx_hal_adc_ex.c **** #if defined (STM32F103x6) || defined (STM32F103xB) || defined (STM32F105xC) || defined (STM32F107xC
 932:Drivers/STM32F1xx_HAL_Driver/Src/stm32f1xx_hal_adc_ex.c **** /**
 933:Drivers/STM32F1xx_HAL_Driver/Src/stm32f1xx_hal_adc_ex.c ****   * @brief  Returns the last ADC Master&Slave regular conversions results data
 934:Drivers/STM32F1xx_HAL_Driver/Src/stm32f1xx_hal_adc_ex.c ****   *         in the selected multi mode.
 935:Drivers/STM32F1xx_HAL_Driver/Src/stm32f1xx_hal_adc_ex.c ****   * @param  hadc: ADC handle of ADC master (handle of ADC slave must not be used)
 936:Drivers/STM32F1xx_HAL_Driver/Src/stm32f1xx_hal_adc_ex.c ****   * @retval The converted data value.
 937:Drivers/STM32F1xx_HAL_Driver/Src/stm32f1xx_hal_adc_ex.c ****   */
 938:Drivers/STM32F1xx_HAL_Driver/Src/stm32f1xx_hal_adc_ex.c **** uint32_t HAL_ADCEx_MultiModeGetValue(ADC_HandleTypeDef* hadc)
 939:Drivers/STM32F1xx_HAL_Driver/Src/stm32f1xx_hal_adc_ex.c **** {
 1255              		.loc 1 939 0
 1256              		.cfi_startproc
 1257              		@ args = 0, pretend = 0, frame = 0
 1258              		@ frame_needed = 0, uses_anonymous_args = 0
 1259              		@ link register save eliminated.
 1260              	.LVL87:
 940:Drivers/STM32F1xx_HAL_Driver/Src/stm32f1xx_hal_adc_ex.c ****   uint32_t tmpDR = 0U;
 941:Drivers/STM32F1xx_HAL_Driver/Src/stm32f1xx_hal_adc_ex.c ****   
 942:Drivers/STM32F1xx_HAL_Driver/Src/stm32f1xx_hal_adc_ex.c ****   /* Check the parameters */
 943:Drivers/STM32F1xx_HAL_Driver/Src/stm32f1xx_hal_adc_ex.c ****   assert_param(IS_ADC_MULTIMODE_MASTER_INSTANCE(hadc->Instance));
 944:Drivers/STM32F1xx_HAL_Driver/Src/stm32f1xx_hal_adc_ex.c ****   
 945:Drivers/STM32F1xx_HAL_Driver/Src/stm32f1xx_hal_adc_ex.c ****   /* Check the parameters */
 946:Drivers/STM32F1xx_HAL_Driver/Src/stm32f1xx_hal_adc_ex.c ****   assert_param(IS_ADC_ALL_INSTANCE(hadc->Instance));
 947:Drivers/STM32F1xx_HAL_Driver/Src/stm32f1xx_hal_adc_ex.c **** 
 948:Drivers/STM32F1xx_HAL_Driver/Src/stm32f1xx_hal_adc_ex.c ****   /* Note: EOC flag is not cleared here by software because automatically     */
 949:Drivers/STM32F1xx_HAL_Driver/Src/stm32f1xx_hal_adc_ex.c ****   /*       cleared by hardware when reading register DR.                      */
 950:Drivers/STM32F1xx_HAL_Driver/Src/stm32f1xx_hal_adc_ex.c ****   
 951:Drivers/STM32F1xx_HAL_Driver/Src/stm32f1xx_hal_adc_ex.c ****   /* On STM32F1 devices, ADC1 data register DR contains ADC2 conversions      */
 952:Drivers/STM32F1xx_HAL_Driver/Src/stm32f1xx_hal_adc_ex.c ****   /* only if ADC1 DMA mode is enabled.                                        */
 953:Drivers/STM32F1xx_HAL_Driver/Src/stm32f1xx_hal_adc_ex.c ****   tmpDR = hadc->Instance->DR;
 1261              		.loc 1 953 0
 1262 0000 0368     		ldr	r3, [r0]
 1263 0002 D86C     		ldr	r0, [r3, #76]
ARM GAS  /tmp/cc0wYaIi.s 			page 40


 1264              	.LVL88:
 954:Drivers/STM32F1xx_HAL_Driver/Src/stm32f1xx_hal_adc_ex.c **** 
 955:Drivers/STM32F1xx_HAL_Driver/Src/stm32f1xx_hal_adc_ex.c ****   if (HAL_IS_BIT_CLR(ADC1->CR2, ADC_CR2_DMA))
 1265              		.loc 1 955 0
 1266 0004 044B     		ldr	r3, .L119
 1267 0006 9B68     		ldr	r3, [r3, #8]
 1268 0008 13F4807F 		tst	r3, #256
 1269 000c 03D1     		bne	.L118
 956:Drivers/STM32F1xx_HAL_Driver/Src/stm32f1xx_hal_adc_ex.c ****   {
 957:Drivers/STM32F1xx_HAL_Driver/Src/stm32f1xx_hal_adc_ex.c ****     tmpDR |= (ADC2->DR << 16U);
 1270              		.loc 1 957 0
 1271 000e 034B     		ldr	r3, .L119+4
 1272 0010 DB6C     		ldr	r3, [r3, #76]
 1273 0012 40EA0340 		orr	r0, r0, r3, lsl #16
 1274              	.LVL89:
 1275              	.L118:
 958:Drivers/STM32F1xx_HAL_Driver/Src/stm32f1xx_hal_adc_ex.c ****   }
 959:Drivers/STM32F1xx_HAL_Driver/Src/stm32f1xx_hal_adc_ex.c ****     
 960:Drivers/STM32F1xx_HAL_Driver/Src/stm32f1xx_hal_adc_ex.c ****   /* Return ADC converted value */ 
 961:Drivers/STM32F1xx_HAL_Driver/Src/stm32f1xx_hal_adc_ex.c ****   return tmpDR;
 962:Drivers/STM32F1xx_HAL_Driver/Src/stm32f1xx_hal_adc_ex.c **** }
 1276              		.loc 1 962 0
 1277 0016 7047     		bx	lr
 1278              	.L120:
 1279              		.align	2
 1280              	.L119:
 1281 0018 00240140 		.word	1073816576
 1282 001c 00280140 		.word	1073817600
 1283              		.cfi_endproc
 1284              	.LFE72:
 1286              		.section	.text.HAL_ADCEx_InjectedConvCpltCallback,"ax",%progbits
 1287              		.align	2
 1288              		.weak	HAL_ADCEx_InjectedConvCpltCallback
 1289              		.thumb
 1290              		.thumb_func
 1292              	HAL_ADCEx_InjectedConvCpltCallback:
 1293              	.LFB73:
 963:Drivers/STM32F1xx_HAL_Driver/Src/stm32f1xx_hal_adc_ex.c **** #endif /* defined STM32F103x6 || defined STM32F103xB || defined STM32F105xC || defined STM32F107xC 
 964:Drivers/STM32F1xx_HAL_Driver/Src/stm32f1xx_hal_adc_ex.c **** 
 965:Drivers/STM32F1xx_HAL_Driver/Src/stm32f1xx_hal_adc_ex.c **** /**
 966:Drivers/STM32F1xx_HAL_Driver/Src/stm32f1xx_hal_adc_ex.c ****   * @brief  Injected conversion complete callback in non blocking mode 
 967:Drivers/STM32F1xx_HAL_Driver/Src/stm32f1xx_hal_adc_ex.c ****   * @param  hadc: ADC handle
 968:Drivers/STM32F1xx_HAL_Driver/Src/stm32f1xx_hal_adc_ex.c ****   * @retval None
 969:Drivers/STM32F1xx_HAL_Driver/Src/stm32f1xx_hal_adc_ex.c ****   */
 970:Drivers/STM32F1xx_HAL_Driver/Src/stm32f1xx_hal_adc_ex.c **** __weak void HAL_ADCEx_InjectedConvCpltCallback(ADC_HandleTypeDef* hadc)
 971:Drivers/STM32F1xx_HAL_Driver/Src/stm32f1xx_hal_adc_ex.c **** {
 1294              		.loc 1 971 0
 1295              		.cfi_startproc
 1296              		@ args = 0, pretend = 0, frame = 0
 1297              		@ frame_needed = 0, uses_anonymous_args = 0
 1298              		@ link register save eliminated.
 1299              	.LVL90:
 1300 0000 7047     		bx	lr
 1301              		.cfi_endproc
 1302              	.LFE73:
 1304 0002 00BF     		.section	.text.HAL_ADCEx_InjectedConfigChannel,"ax",%progbits
 1305              		.align	2
ARM GAS  /tmp/cc0wYaIi.s 			page 41


 1306              		.global	HAL_ADCEx_InjectedConfigChannel
 1307              		.thumb
 1308              		.thumb_func
 1310              	HAL_ADCEx_InjectedConfigChannel:
 1311              	.LFB74:
 972:Drivers/STM32F1xx_HAL_Driver/Src/stm32f1xx_hal_adc_ex.c ****   /* Prevent unused argument(s) compilation warning */
 973:Drivers/STM32F1xx_HAL_Driver/Src/stm32f1xx_hal_adc_ex.c ****   UNUSED(hadc);
 974:Drivers/STM32F1xx_HAL_Driver/Src/stm32f1xx_hal_adc_ex.c ****   /* NOTE : This function Should not be modified, when the callback is needed,
 975:Drivers/STM32F1xx_HAL_Driver/Src/stm32f1xx_hal_adc_ex.c ****             the HAL_ADCEx_InjectedConvCpltCallback could be implemented in the user file
 976:Drivers/STM32F1xx_HAL_Driver/Src/stm32f1xx_hal_adc_ex.c ****   */
 977:Drivers/STM32F1xx_HAL_Driver/Src/stm32f1xx_hal_adc_ex.c **** }
 978:Drivers/STM32F1xx_HAL_Driver/Src/stm32f1xx_hal_adc_ex.c **** 
 979:Drivers/STM32F1xx_HAL_Driver/Src/stm32f1xx_hal_adc_ex.c **** /**
 980:Drivers/STM32F1xx_HAL_Driver/Src/stm32f1xx_hal_adc_ex.c ****   * @}
 981:Drivers/STM32F1xx_HAL_Driver/Src/stm32f1xx_hal_adc_ex.c ****   */
 982:Drivers/STM32F1xx_HAL_Driver/Src/stm32f1xx_hal_adc_ex.c **** 
 983:Drivers/STM32F1xx_HAL_Driver/Src/stm32f1xx_hal_adc_ex.c **** /** @defgroup ADCEx_Exported_Functions_Group2 Extended Peripheral Control functions
 984:Drivers/STM32F1xx_HAL_Driver/Src/stm32f1xx_hal_adc_ex.c ****   * @brief    Extended Peripheral Control functions
 985:Drivers/STM32F1xx_HAL_Driver/Src/stm32f1xx_hal_adc_ex.c ****   *
 986:Drivers/STM32F1xx_HAL_Driver/Src/stm32f1xx_hal_adc_ex.c **** @verbatim   
 987:Drivers/STM32F1xx_HAL_Driver/Src/stm32f1xx_hal_adc_ex.c ****  ===============================================================================
 988:Drivers/STM32F1xx_HAL_Driver/Src/stm32f1xx_hal_adc_ex.c ****              ##### Peripheral Control functions #####
 989:Drivers/STM32F1xx_HAL_Driver/Src/stm32f1xx_hal_adc_ex.c ****  ===============================================================================  
 990:Drivers/STM32F1xx_HAL_Driver/Src/stm32f1xx_hal_adc_ex.c ****     [..]  This section provides functions allowing to:
 991:Drivers/STM32F1xx_HAL_Driver/Src/stm32f1xx_hal_adc_ex.c ****       (+) Configure channels on injected group
 992:Drivers/STM32F1xx_HAL_Driver/Src/stm32f1xx_hal_adc_ex.c ****       (+) Configure multimode
 993:Drivers/STM32F1xx_HAL_Driver/Src/stm32f1xx_hal_adc_ex.c **** 
 994:Drivers/STM32F1xx_HAL_Driver/Src/stm32f1xx_hal_adc_ex.c **** @endverbatim
 995:Drivers/STM32F1xx_HAL_Driver/Src/stm32f1xx_hal_adc_ex.c ****   * @{
 996:Drivers/STM32F1xx_HAL_Driver/Src/stm32f1xx_hal_adc_ex.c ****   */
 997:Drivers/STM32F1xx_HAL_Driver/Src/stm32f1xx_hal_adc_ex.c **** 
 998:Drivers/STM32F1xx_HAL_Driver/Src/stm32f1xx_hal_adc_ex.c **** /**
 999:Drivers/STM32F1xx_HAL_Driver/Src/stm32f1xx_hal_adc_ex.c ****   * @brief  Configures the ADC injected group and the selected channel to be
1000:Drivers/STM32F1xx_HAL_Driver/Src/stm32f1xx_hal_adc_ex.c ****   *         linked to the injected group.
1001:Drivers/STM32F1xx_HAL_Driver/Src/stm32f1xx_hal_adc_ex.c ****   * @note   Possibility to update parameters on the fly:
1002:Drivers/STM32F1xx_HAL_Driver/Src/stm32f1xx_hal_adc_ex.c ****   *         This function initializes injected group, following calls to this 
1003:Drivers/STM32F1xx_HAL_Driver/Src/stm32f1xx_hal_adc_ex.c ****   *         function can be used to reconfigure some parameters of structure
1004:Drivers/STM32F1xx_HAL_Driver/Src/stm32f1xx_hal_adc_ex.c ****   *         "ADC_InjectionConfTypeDef" on the fly, without reseting the ADC.
1005:Drivers/STM32F1xx_HAL_Driver/Src/stm32f1xx_hal_adc_ex.c ****   *         The setting of these parameters is conditioned to ADC state: 
1006:Drivers/STM32F1xx_HAL_Driver/Src/stm32f1xx_hal_adc_ex.c ****   *         this function must be called when ADC is not under conversion.
1007:Drivers/STM32F1xx_HAL_Driver/Src/stm32f1xx_hal_adc_ex.c ****   * @param  hadc: ADC handle
1008:Drivers/STM32F1xx_HAL_Driver/Src/stm32f1xx_hal_adc_ex.c ****   * @param  sConfigInjected: Structure of ADC injected group and ADC channel for
1009:Drivers/STM32F1xx_HAL_Driver/Src/stm32f1xx_hal_adc_ex.c ****   *         injected group.
1010:Drivers/STM32F1xx_HAL_Driver/Src/stm32f1xx_hal_adc_ex.c ****   * @retval None
1011:Drivers/STM32F1xx_HAL_Driver/Src/stm32f1xx_hal_adc_ex.c ****   */
1012:Drivers/STM32F1xx_HAL_Driver/Src/stm32f1xx_hal_adc_ex.c **** HAL_StatusTypeDef HAL_ADCEx_InjectedConfigChannel(ADC_HandleTypeDef* hadc, ADC_InjectionConfTypeDef
1013:Drivers/STM32F1xx_HAL_Driver/Src/stm32f1xx_hal_adc_ex.c **** {
 1312              		.loc 1 1013 0
 1313              		.cfi_startproc
 1314              		@ args = 0, pretend = 0, frame = 8
 1315              		@ frame_needed = 0, uses_anonymous_args = 0
 1316              		@ link register save eliminated.
 1317              	.LVL91:
 1318              		.loc 1 1013 0
 1319 0000 F0B4     		push	{r4, r5, r6, r7}
 1320              	.LCFI22:
 1321              		.cfi_def_cfa_offset 16
ARM GAS  /tmp/cc0wYaIi.s 			page 42


 1322              		.cfi_offset 4, -16
 1323              		.cfi_offset 5, -12
 1324              		.cfi_offset 6, -8
 1325              		.cfi_offset 7, -4
 1326 0002 82B0     		sub	sp, sp, #8
 1327              	.LCFI23:
 1328              		.cfi_def_cfa_offset 24
 1329              	.LVL92:
1014:Drivers/STM32F1xx_HAL_Driver/Src/stm32f1xx_hal_adc_ex.c ****   HAL_StatusTypeDef tmp_hal_status = HAL_OK;
1015:Drivers/STM32F1xx_HAL_Driver/Src/stm32f1xx_hal_adc_ex.c ****   __IO uint32_t wait_loop_index = 0U;
 1330              		.loc 1 1015 0
 1331 0004 0023     		movs	r3, #0
 1332 0006 0193     		str	r3, [sp, #4]
1016:Drivers/STM32F1xx_HAL_Driver/Src/stm32f1xx_hal_adc_ex.c ****   
1017:Drivers/STM32F1xx_HAL_Driver/Src/stm32f1xx_hal_adc_ex.c ****   /* Check the parameters */
1018:Drivers/STM32F1xx_HAL_Driver/Src/stm32f1xx_hal_adc_ex.c ****   assert_param(IS_ADC_ALL_INSTANCE(hadc->Instance));
1019:Drivers/STM32F1xx_HAL_Driver/Src/stm32f1xx_hal_adc_ex.c ****   assert_param(IS_ADC_CHANNEL(sConfigInjected->InjectedChannel));
1020:Drivers/STM32F1xx_HAL_Driver/Src/stm32f1xx_hal_adc_ex.c ****   assert_param(IS_ADC_SAMPLE_TIME(sConfigInjected->InjectedSamplingTime));
1021:Drivers/STM32F1xx_HAL_Driver/Src/stm32f1xx_hal_adc_ex.c ****   assert_param(IS_FUNCTIONAL_STATE(sConfigInjected->AutoInjectedConv));
1022:Drivers/STM32F1xx_HAL_Driver/Src/stm32f1xx_hal_adc_ex.c ****   assert_param(IS_ADC_EXTTRIGINJEC(sConfigInjected->ExternalTrigInjecConv));
1023:Drivers/STM32F1xx_HAL_Driver/Src/stm32f1xx_hal_adc_ex.c ****   assert_param(IS_ADC_RANGE(sConfigInjected->InjectedOffset));
1024:Drivers/STM32F1xx_HAL_Driver/Src/stm32f1xx_hal_adc_ex.c ****   
1025:Drivers/STM32F1xx_HAL_Driver/Src/stm32f1xx_hal_adc_ex.c ****   if(hadc->Init.ScanConvMode != ADC_SCAN_DISABLE)
1026:Drivers/STM32F1xx_HAL_Driver/Src/stm32f1xx_hal_adc_ex.c ****   {
1027:Drivers/STM32F1xx_HAL_Driver/Src/stm32f1xx_hal_adc_ex.c ****     assert_param(IS_ADC_INJECTED_RANK(sConfigInjected->InjectedRank));
1028:Drivers/STM32F1xx_HAL_Driver/Src/stm32f1xx_hal_adc_ex.c ****     assert_param(IS_ADC_INJECTED_NB_CONV(sConfigInjected->InjectedNbrOfConversion));
1029:Drivers/STM32F1xx_HAL_Driver/Src/stm32f1xx_hal_adc_ex.c ****     assert_param(IS_FUNCTIONAL_STATE(sConfigInjected->InjectedDiscontinuousConvMode));
1030:Drivers/STM32F1xx_HAL_Driver/Src/stm32f1xx_hal_adc_ex.c ****   }
1031:Drivers/STM32F1xx_HAL_Driver/Src/stm32f1xx_hal_adc_ex.c ****   
1032:Drivers/STM32F1xx_HAL_Driver/Src/stm32f1xx_hal_adc_ex.c ****   /* Process locked */
1033:Drivers/STM32F1xx_HAL_Driver/Src/stm32f1xx_hal_adc_ex.c ****   __HAL_LOCK(hadc);
 1333              		.loc 1 1033 0
 1334 0008 90F82430 		ldrb	r3, [r0, #36]	@ zero_extendqisi2
 1335 000c 012B     		cmp	r3, #1
 1336 000e 00F0F280 		beq	.L145
 1337              		.loc 1 1033 0 is_stmt 0 discriminator 2
 1338 0012 0123     		movs	r3, #1
 1339 0014 80F82430 		strb	r3, [r0, #36]
1034:Drivers/STM32F1xx_HAL_Driver/Src/stm32f1xx_hal_adc_ex.c ****   
1035:Drivers/STM32F1xx_HAL_Driver/Src/stm32f1xx_hal_adc_ex.c ****   /* Configuration of injected group sequencer:                               */
1036:Drivers/STM32F1xx_HAL_Driver/Src/stm32f1xx_hal_adc_ex.c ****   /* - if scan mode is disabled, injected channels sequence length is set to  */
1037:Drivers/STM32F1xx_HAL_Driver/Src/stm32f1xx_hal_adc_ex.c ****   /*   0x00: 1 channel converted (channel on regular rank 1)                  */
1038:Drivers/STM32F1xx_HAL_Driver/Src/stm32f1xx_hal_adc_ex.c ****   /*   Parameter "InjectedNbrOfConversion" is discarded.                      */
1039:Drivers/STM32F1xx_HAL_Driver/Src/stm32f1xx_hal_adc_ex.c ****   /*   Note: Scan mode is present by hardware on this device and, if          */
1040:Drivers/STM32F1xx_HAL_Driver/Src/stm32f1xx_hal_adc_ex.c ****   /*   disabled, discards automatically nb of conversions. Anyway, nb of      */
1041:Drivers/STM32F1xx_HAL_Driver/Src/stm32f1xx_hal_adc_ex.c ****   /*   conversions is forced to 0x00 for alignment over all STM32 devices.    */
1042:Drivers/STM32F1xx_HAL_Driver/Src/stm32f1xx_hal_adc_ex.c ****   /* - if scan mode is enabled, injected channels sequence length is set to   */
1043:Drivers/STM32F1xx_HAL_Driver/Src/stm32f1xx_hal_adc_ex.c ****   /*   parameter "InjectedNbrOfConversion".                                   */
1044:Drivers/STM32F1xx_HAL_Driver/Src/stm32f1xx_hal_adc_ex.c ****   if (hadc->Init.ScanConvMode == ADC_SCAN_DISABLE)
 1340              		.loc 1 1044 0 is_stmt 1 discriminator 2
 1341 0018 8368     		ldr	r3, [r0, #8]
 1342 001a 93B9     		cbnz	r3, .L124
1045:Drivers/STM32F1xx_HAL_Driver/Src/stm32f1xx_hal_adc_ex.c ****   {
1046:Drivers/STM32F1xx_HAL_Driver/Src/stm32f1xx_hal_adc_ex.c ****     if (sConfigInjected->InjectedRank == ADC_INJECTED_RANK_1)
 1343              		.loc 1 1046 0
 1344 001c 4B68     		ldr	r3, [r1, #4]
 1345 001e 012B     		cmp	r3, #1
ARM GAS  /tmp/cc0wYaIi.s 			page 43


 1346 0020 09D1     		bne	.L125
1047:Drivers/STM32F1xx_HAL_Driver/Src/stm32f1xx_hal_adc_ex.c ****     {
1048:Drivers/STM32F1xx_HAL_Driver/Src/stm32f1xx_hal_adc_ex.c ****       /* Clear the old SQx bits for all injected ranks */
1049:Drivers/STM32F1xx_HAL_Driver/Src/stm32f1xx_hal_adc_ex.c ****       MODIFY_REG(hadc->Instance->JSQR                             ,
 1347              		.loc 1 1049 0
 1348 0022 0268     		ldr	r2, [r0]
 1349 0024 936B     		ldr	r3, [r2, #56]
 1350 0026 9B0D     		lsrs	r3, r3, #22
 1351 0028 9B05     		lsls	r3, r3, #22
 1352 002a 0C68     		ldr	r4, [r1]
 1353 002c 43EAC433 		orr	r3, r3, r4, lsl #15
 1354 0030 9363     		str	r3, [r2, #56]
1014:Drivers/STM32F1xx_HAL_Driver/Src/stm32f1xx_hal_adc_ex.c ****   __IO uint32_t wait_loop_index = 0U;
 1355              		.loc 1 1014 0
 1356 0032 0022     		movs	r2, #0
 1357 0034 2DE0     		b	.L126
 1358              	.L125:
1050:Drivers/STM32F1xx_HAL_Driver/Src/stm32f1xx_hal_adc_ex.c ****                  ADC_JSQR_JL   |
1051:Drivers/STM32F1xx_HAL_Driver/Src/stm32f1xx_hal_adc_ex.c ****                  ADC_JSQR_JSQ4 |
1052:Drivers/STM32F1xx_HAL_Driver/Src/stm32f1xx_hal_adc_ex.c ****                  ADC_JSQR_JSQ3 |
1053:Drivers/STM32F1xx_HAL_Driver/Src/stm32f1xx_hal_adc_ex.c ****                  ADC_JSQR_JSQ2 |
1054:Drivers/STM32F1xx_HAL_Driver/Src/stm32f1xx_hal_adc_ex.c ****                  ADC_JSQR_JSQ1                                    ,
1055:Drivers/STM32F1xx_HAL_Driver/Src/stm32f1xx_hal_adc_ex.c ****                  ADC_JSQR_RK_JL(sConfigInjected->InjectedChannel,
1056:Drivers/STM32F1xx_HAL_Driver/Src/stm32f1xx_hal_adc_ex.c ****                                   ADC_INJECTED_RANK_1,
1057:Drivers/STM32F1xx_HAL_Driver/Src/stm32f1xx_hal_adc_ex.c ****                                   0x01U));
1058:Drivers/STM32F1xx_HAL_Driver/Src/stm32f1xx_hal_adc_ex.c ****     }
1059:Drivers/STM32F1xx_HAL_Driver/Src/stm32f1xx_hal_adc_ex.c ****     /* If another injected rank than rank1 was intended to be set, and could  */
1060:Drivers/STM32F1xx_HAL_Driver/Src/stm32f1xx_hal_adc_ex.c ****     /* not due to ScanConvMode disabled, error is reported.                   */
1061:Drivers/STM32F1xx_HAL_Driver/Src/stm32f1xx_hal_adc_ex.c ****     else
1062:Drivers/STM32F1xx_HAL_Driver/Src/stm32f1xx_hal_adc_ex.c ****     {
1063:Drivers/STM32F1xx_HAL_Driver/Src/stm32f1xx_hal_adc_ex.c ****       /* Update ADC state machine to error */
1064:Drivers/STM32F1xx_HAL_Driver/Src/stm32f1xx_hal_adc_ex.c ****       SET_BIT(hadc->State, HAL_ADC_STATE_ERROR_CONFIG);
 1359              		.loc 1 1064 0
 1360 0036 836A     		ldr	r3, [r0, #40]
 1361 0038 43F02003 		orr	r3, r3, #32
 1362 003c 8362     		str	r3, [r0, #40]
 1363              	.LVL93:
1065:Drivers/STM32F1xx_HAL_Driver/Src/stm32f1xx_hal_adc_ex.c ****       
1066:Drivers/STM32F1xx_HAL_Driver/Src/stm32f1xx_hal_adc_ex.c ****       tmp_hal_status = HAL_ERROR;
 1364              		.loc 1 1066 0
 1365 003e 0122     		movs	r2, #1
 1366 0040 27E0     		b	.L126
 1367              	.LVL94:
 1368              	.L124:
1067:Drivers/STM32F1xx_HAL_Driver/Src/stm32f1xx_hal_adc_ex.c ****     }
1068:Drivers/STM32F1xx_HAL_Driver/Src/stm32f1xx_hal_adc_ex.c ****   }
1069:Drivers/STM32F1xx_HAL_Driver/Src/stm32f1xx_hal_adc_ex.c ****   else
1070:Drivers/STM32F1xx_HAL_Driver/Src/stm32f1xx_hal_adc_ex.c ****   {
1071:Drivers/STM32F1xx_HAL_Driver/Src/stm32f1xx_hal_adc_ex.c ****     /* Since injected channels rank conv. order depends on total number of   */
1072:Drivers/STM32F1xx_HAL_Driver/Src/stm32f1xx_hal_adc_ex.c ****     /* injected conversions, selected rank must be below or equal to total   */
1073:Drivers/STM32F1xx_HAL_Driver/Src/stm32f1xx_hal_adc_ex.c ****     /* number of injected conversions to be updated.                         */
1074:Drivers/STM32F1xx_HAL_Driver/Src/stm32f1xx_hal_adc_ex.c ****     if (sConfigInjected->InjectedRank <= sConfigInjected->InjectedNbrOfConversion)
 1369              		.loc 1 1074 0
 1370 0042 4B68     		ldr	r3, [r1, #4]
 1371 0044 0C69     		ldr	r4, [r1, #16]
 1372 0046 A342     		cmp	r3, r4
 1373 0048 14D8     		bhi	.L127
ARM GAS  /tmp/cc0wYaIi.s 			page 44


1075:Drivers/STM32F1xx_HAL_Driver/Src/stm32f1xx_hal_adc_ex.c ****     {
1076:Drivers/STM32F1xx_HAL_Driver/Src/stm32f1xx_hal_adc_ex.c ****       /* Clear the old SQx bits for the selected rank */
1077:Drivers/STM32F1xx_HAL_Driver/Src/stm32f1xx_hal_adc_ex.c ****       /* Set the SQx bits for the selected rank */
1078:Drivers/STM32F1xx_HAL_Driver/Src/stm32f1xx_hal_adc_ex.c ****       MODIFY_REG(hadc->Instance->JSQR                                         ,
 1374              		.loc 1 1078 0
 1375 004a 0668     		ldr	r6, [r0]
 1376 004c B76B     		ldr	r7, [r6, #56]
 1377 004e 1A1B     		subs	r2, r3, r4
 1378 0050 02EB8202 		add	r2, r2, r2, lsl #2
 1379 0054 0F32     		adds	r2, r2, #15
 1380 0056 1F23     		movs	r3, #31
 1381 0058 9340     		lsls	r3, r3, r2
 1382 005a 43F44013 		orr	r3, r3, #3145728
 1383 005e 27EA0307 		bic	r7, r7, r3
 1384 0062 631E     		subs	r3, r4, #1
 1385 0064 0D68     		ldr	r5, [r1]
 1386 0066 9540     		lsls	r5, r5, r2
 1387 0068 45EA0353 		orr	r3, r5, r3, lsl #20
 1388 006c 3B43     		orrs	r3, r3, r7
 1389 006e B363     		str	r3, [r6, #56]
1014:Drivers/STM32F1xx_HAL_Driver/Src/stm32f1xx_hal_adc_ex.c ****   __IO uint32_t wait_loop_index = 0U;
 1390              		.loc 1 1014 0
 1391 0070 0022     		movs	r2, #0
 1392 0072 0EE0     		b	.L126
 1393              	.L127:
1079:Drivers/STM32F1xx_HAL_Driver/Src/stm32f1xx_hal_adc_ex.c ****                  
1080:Drivers/STM32F1xx_HAL_Driver/Src/stm32f1xx_hal_adc_ex.c ****                  ADC_JSQR_JL                                               |
1081:Drivers/STM32F1xx_HAL_Driver/Src/stm32f1xx_hal_adc_ex.c ****                  ADC_JSQR_RK_JL(ADC_JSQR_JSQ1,                         
1082:Drivers/STM32F1xx_HAL_Driver/Src/stm32f1xx_hal_adc_ex.c ****                                   sConfigInjected->InjectedRank,         
1083:Drivers/STM32F1xx_HAL_Driver/Src/stm32f1xx_hal_adc_ex.c ****                                   sConfigInjected->InjectedNbrOfConversion)   ,
1084:Drivers/STM32F1xx_HAL_Driver/Src/stm32f1xx_hal_adc_ex.c ****                  
1085:Drivers/STM32F1xx_HAL_Driver/Src/stm32f1xx_hal_adc_ex.c ****                  ADC_JSQR_JL_SHIFT(sConfigInjected->InjectedNbrOfConversion) |
1086:Drivers/STM32F1xx_HAL_Driver/Src/stm32f1xx_hal_adc_ex.c ****                  ADC_JSQR_RK_JL(sConfigInjected->InjectedChannel,      
1087:Drivers/STM32F1xx_HAL_Driver/Src/stm32f1xx_hal_adc_ex.c ****                                   sConfigInjected->InjectedRank,         
1088:Drivers/STM32F1xx_HAL_Driver/Src/stm32f1xx_hal_adc_ex.c ****                                   sConfigInjected->InjectedNbrOfConversion)    );
1089:Drivers/STM32F1xx_HAL_Driver/Src/stm32f1xx_hal_adc_ex.c ****     }
1090:Drivers/STM32F1xx_HAL_Driver/Src/stm32f1xx_hal_adc_ex.c ****     else
1091:Drivers/STM32F1xx_HAL_Driver/Src/stm32f1xx_hal_adc_ex.c ****     {
1092:Drivers/STM32F1xx_HAL_Driver/Src/stm32f1xx_hal_adc_ex.c ****       /* Clear the old SQx bits for the selected rank */
1093:Drivers/STM32F1xx_HAL_Driver/Src/stm32f1xx_hal_adc_ex.c ****       MODIFY_REG(hadc->Instance->JSQR                                       ,
 1394              		.loc 1 1093 0
 1395 0074 0668     		ldr	r6, [r0]
 1396 0076 B56B     		ldr	r5, [r6, #56]
 1397 0078 1B1B     		subs	r3, r3, r4
 1398 007a 03EB8303 		add	r3, r3, r3, lsl #2
 1399 007e 0F33     		adds	r3, r3, #15
 1400 0080 1F22     		movs	r2, #31
 1401 0082 02FA03F3 		lsl	r3, r2, r3
 1402 0086 43F44013 		orr	r3, r3, #3145728
 1403 008a 25EA0303 		bic	r3, r5, r3
 1404 008e B363     		str	r3, [r6, #56]
1014:Drivers/STM32F1xx_HAL_Driver/Src/stm32f1xx_hal_adc_ex.c ****   __IO uint32_t wait_loop_index = 0U;
 1405              		.loc 1 1014 0
 1406 0090 0022     		movs	r2, #0
 1407              	.LVL95:
 1408              	.L126:
1094:Drivers/STM32F1xx_HAL_Driver/Src/stm32f1xx_hal_adc_ex.c ****                  
ARM GAS  /tmp/cc0wYaIi.s 			page 45


1095:Drivers/STM32F1xx_HAL_Driver/Src/stm32f1xx_hal_adc_ex.c ****                  ADC_JSQR_JL                                               |
1096:Drivers/STM32F1xx_HAL_Driver/Src/stm32f1xx_hal_adc_ex.c ****                  ADC_JSQR_RK_JL(ADC_JSQR_JSQ1,                         
1097:Drivers/STM32F1xx_HAL_Driver/Src/stm32f1xx_hal_adc_ex.c ****                                   sConfigInjected->InjectedRank,         
1098:Drivers/STM32F1xx_HAL_Driver/Src/stm32f1xx_hal_adc_ex.c ****                                   sConfigInjected->InjectedNbrOfConversion) ,
1099:Drivers/STM32F1xx_HAL_Driver/Src/stm32f1xx_hal_adc_ex.c ****                  
1100:Drivers/STM32F1xx_HAL_Driver/Src/stm32f1xx_hal_adc_ex.c ****                  0x00000000U);
1101:Drivers/STM32F1xx_HAL_Driver/Src/stm32f1xx_hal_adc_ex.c ****     }
1102:Drivers/STM32F1xx_HAL_Driver/Src/stm32f1xx_hal_adc_ex.c ****   } 
1103:Drivers/STM32F1xx_HAL_Driver/Src/stm32f1xx_hal_adc_ex.c ****     
1104:Drivers/STM32F1xx_HAL_Driver/Src/stm32f1xx_hal_adc_ex.c ****   /* Configuration of injected group                                          */
1105:Drivers/STM32F1xx_HAL_Driver/Src/stm32f1xx_hal_adc_ex.c ****   /* Parameters update conditioned to ADC state:                              */
1106:Drivers/STM32F1xx_HAL_Driver/Src/stm32f1xx_hal_adc_ex.c ****   /* Parameters that can be updated only when ADC is disabled:                */
1107:Drivers/STM32F1xx_HAL_Driver/Src/stm32f1xx_hal_adc_ex.c ****   /*  - external trigger to start conversion                                  */
1108:Drivers/STM32F1xx_HAL_Driver/Src/stm32f1xx_hal_adc_ex.c ****   /* Parameters update not conditioned to ADC state:                          */
1109:Drivers/STM32F1xx_HAL_Driver/Src/stm32f1xx_hal_adc_ex.c ****   /*  - Automatic injected conversion                                         */
1110:Drivers/STM32F1xx_HAL_Driver/Src/stm32f1xx_hal_adc_ex.c ****   /*  - Injected discontinuous mode                                           */
1111:Drivers/STM32F1xx_HAL_Driver/Src/stm32f1xx_hal_adc_ex.c ****   /* Note: In case of ADC already enabled, caution to not launch an unwanted  */
1112:Drivers/STM32F1xx_HAL_Driver/Src/stm32f1xx_hal_adc_ex.c ****   /*       conversion while modifying register CR2 by writing 1 to bit ADON.  */
1113:Drivers/STM32F1xx_HAL_Driver/Src/stm32f1xx_hal_adc_ex.c ****   if (ADC_IS_ENABLE(hadc) == RESET)
 1409              		.loc 1 1113 0
 1410 0092 0368     		ldr	r3, [r0]
 1411 0094 9C68     		ldr	r4, [r3, #8]
 1412 0096 14F0010F 		tst	r4, #1
 1413 009a 07D1     		bne	.L128
1114:Drivers/STM32F1xx_HAL_Driver/Src/stm32f1xx_hal_adc_ex.c ****   {    
1115:Drivers/STM32F1xx_HAL_Driver/Src/stm32f1xx_hal_adc_ex.c ****     MODIFY_REG(hadc->Instance->CR2                                           ,
 1414              		.loc 1 1115 0
 1415 009c 9C68     		ldr	r4, [r3, #8]
 1416 009e 24F4E044 		bic	r4, r4, #28672
 1417 00a2 24F00104 		bic	r4, r4, #1
 1418 00a6 CD69     		ldr	r5, [r1, #28]
 1419 00a8 2C43     		orrs	r4, r4, r5
 1420 00aa 9C60     		str	r4, [r3, #8]
 1421              	.L128:
1116:Drivers/STM32F1xx_HAL_Driver/Src/stm32f1xx_hal_adc_ex.c ****                ADC_CR2_JEXTSEL |
1117:Drivers/STM32F1xx_HAL_Driver/Src/stm32f1xx_hal_adc_ex.c ****                ADC_CR2_ADON                                                  ,
1118:Drivers/STM32F1xx_HAL_Driver/Src/stm32f1xx_hal_adc_ex.c ****                ADC_CFGR_JEXTSEL(hadc, sConfigInjected->ExternalTrigInjecConv) );
1119:Drivers/STM32F1xx_HAL_Driver/Src/stm32f1xx_hal_adc_ex.c ****   }
1120:Drivers/STM32F1xx_HAL_Driver/Src/stm32f1xx_hal_adc_ex.c ****   
1121:Drivers/STM32F1xx_HAL_Driver/Src/stm32f1xx_hal_adc_ex.c ****   
1122:Drivers/STM32F1xx_HAL_Driver/Src/stm32f1xx_hal_adc_ex.c ****   /* Configuration of injected group                                          */
1123:Drivers/STM32F1xx_HAL_Driver/Src/stm32f1xx_hal_adc_ex.c ****   /*  - Automatic injected conversion                                         */
1124:Drivers/STM32F1xx_HAL_Driver/Src/stm32f1xx_hal_adc_ex.c ****   /*  - Injected discontinuous mode                                           */
1125:Drivers/STM32F1xx_HAL_Driver/Src/stm32f1xx_hal_adc_ex.c ****   
1126:Drivers/STM32F1xx_HAL_Driver/Src/stm32f1xx_hal_adc_ex.c ****     /* Automatic injected conversion can be enabled if injected group         */
1127:Drivers/STM32F1xx_HAL_Driver/Src/stm32f1xx_hal_adc_ex.c ****     /* external triggers are disabled.                                        */
1128:Drivers/STM32F1xx_HAL_Driver/Src/stm32f1xx_hal_adc_ex.c ****     if (sConfigInjected->AutoInjectedConv == ENABLE)
 1422              		.loc 1 1128 0
 1423 00ac 8B69     		ldr	r3, [r1, #24]
 1424 00ae 012B     		cmp	r3, #1
 1425 00b0 0ED1     		bne	.L129
1129:Drivers/STM32F1xx_HAL_Driver/Src/stm32f1xx_hal_adc_ex.c ****     {
1130:Drivers/STM32F1xx_HAL_Driver/Src/stm32f1xx_hal_adc_ex.c ****       if (sConfigInjected->ExternalTrigInjecConv == ADC_INJECTED_SOFTWARE_START)
 1426              		.loc 1 1130 0
 1427 00b2 CB69     		ldr	r3, [r1, #28]
 1428 00b4 B3F5E04F 		cmp	r3, #28672
 1429 00b8 05D1     		bne	.L130
ARM GAS  /tmp/cc0wYaIi.s 			page 46


1131:Drivers/STM32F1xx_HAL_Driver/Src/stm32f1xx_hal_adc_ex.c ****       {
1132:Drivers/STM32F1xx_HAL_Driver/Src/stm32f1xx_hal_adc_ex.c ****         SET_BIT(hadc->Instance->CR1, ADC_CR1_JAUTO);
 1430              		.loc 1 1132 0
 1431 00ba 0468     		ldr	r4, [r0]
 1432 00bc 6368     		ldr	r3, [r4, #4]
 1433 00be 43F48063 		orr	r3, r3, #1024
 1434 00c2 6360     		str	r3, [r4, #4]
 1435 00c4 04E0     		b	.L129
 1436              	.L130:
1133:Drivers/STM32F1xx_HAL_Driver/Src/stm32f1xx_hal_adc_ex.c ****       }
1134:Drivers/STM32F1xx_HAL_Driver/Src/stm32f1xx_hal_adc_ex.c ****       else
1135:Drivers/STM32F1xx_HAL_Driver/Src/stm32f1xx_hal_adc_ex.c ****       {
1136:Drivers/STM32F1xx_HAL_Driver/Src/stm32f1xx_hal_adc_ex.c ****         /* Update ADC state machine to error */
1137:Drivers/STM32F1xx_HAL_Driver/Src/stm32f1xx_hal_adc_ex.c ****         SET_BIT(hadc->State, HAL_ADC_STATE_ERROR_CONFIG);
 1437              		.loc 1 1137 0
 1438 00c6 836A     		ldr	r3, [r0, #40]
 1439 00c8 43F02003 		orr	r3, r3, #32
 1440 00cc 8362     		str	r3, [r0, #40]
 1441              	.LVL96:
1138:Drivers/STM32F1xx_HAL_Driver/Src/stm32f1xx_hal_adc_ex.c ****         
1139:Drivers/STM32F1xx_HAL_Driver/Src/stm32f1xx_hal_adc_ex.c ****         tmp_hal_status = HAL_ERROR;
 1442              		.loc 1 1139 0
 1443 00ce 0122     		movs	r2, #1
 1444              	.LVL97:
 1445              	.L129:
1140:Drivers/STM32F1xx_HAL_Driver/Src/stm32f1xx_hal_adc_ex.c ****       }
1141:Drivers/STM32F1xx_HAL_Driver/Src/stm32f1xx_hal_adc_ex.c ****     }
1142:Drivers/STM32F1xx_HAL_Driver/Src/stm32f1xx_hal_adc_ex.c ****     
1143:Drivers/STM32F1xx_HAL_Driver/Src/stm32f1xx_hal_adc_ex.c ****     /* Injected discontinuous can be enabled only if auto-injected mode is    */
1144:Drivers/STM32F1xx_HAL_Driver/Src/stm32f1xx_hal_adc_ex.c ****     /* disabled.                                                              */  
1145:Drivers/STM32F1xx_HAL_Driver/Src/stm32f1xx_hal_adc_ex.c ****     if (sConfigInjected->InjectedDiscontinuousConvMode == ENABLE)
 1446              		.loc 1 1145 0
 1447 00d0 4B69     		ldr	r3, [r1, #20]
 1448 00d2 012B     		cmp	r3, #1
 1449 00d4 0CD1     		bne	.L131
1146:Drivers/STM32F1xx_HAL_Driver/Src/stm32f1xx_hal_adc_ex.c ****     {
1147:Drivers/STM32F1xx_HAL_Driver/Src/stm32f1xx_hal_adc_ex.c ****       if (sConfigInjected->AutoInjectedConv == DISABLE)
 1450              		.loc 1 1147 0
 1451 00d6 8B69     		ldr	r3, [r1, #24]
 1452 00d8 2BB9     		cbnz	r3, .L132
1148:Drivers/STM32F1xx_HAL_Driver/Src/stm32f1xx_hal_adc_ex.c ****       {
1149:Drivers/STM32F1xx_HAL_Driver/Src/stm32f1xx_hal_adc_ex.c ****         SET_BIT(hadc->Instance->CR1, ADC_CR1_JDISCEN);
 1453              		.loc 1 1149 0
 1454 00da 0468     		ldr	r4, [r0]
 1455 00dc 6368     		ldr	r3, [r4, #4]
 1456 00de 43F48053 		orr	r3, r3, #4096
 1457 00e2 6360     		str	r3, [r4, #4]
 1458 00e4 04E0     		b	.L131
 1459              	.L132:
1150:Drivers/STM32F1xx_HAL_Driver/Src/stm32f1xx_hal_adc_ex.c ****       } 
1151:Drivers/STM32F1xx_HAL_Driver/Src/stm32f1xx_hal_adc_ex.c ****       else
1152:Drivers/STM32F1xx_HAL_Driver/Src/stm32f1xx_hal_adc_ex.c ****       {
1153:Drivers/STM32F1xx_HAL_Driver/Src/stm32f1xx_hal_adc_ex.c ****         /* Update ADC state machine to error */
1154:Drivers/STM32F1xx_HAL_Driver/Src/stm32f1xx_hal_adc_ex.c ****         SET_BIT(hadc->State, HAL_ADC_STATE_ERROR_CONFIG);
 1460              		.loc 1 1154 0
 1461 00e6 836A     		ldr	r3, [r0, #40]
 1462 00e8 43F02003 		orr	r3, r3, #32
ARM GAS  /tmp/cc0wYaIi.s 			page 47


 1463 00ec 8362     		str	r3, [r0, #40]
 1464              	.LVL98:
1155:Drivers/STM32F1xx_HAL_Driver/Src/stm32f1xx_hal_adc_ex.c ****         
1156:Drivers/STM32F1xx_HAL_Driver/Src/stm32f1xx_hal_adc_ex.c ****         tmp_hal_status = HAL_ERROR;
 1465              		.loc 1 1156 0
 1466 00ee 0122     		movs	r2, #1
 1467              	.LVL99:
 1468              	.L131:
1157:Drivers/STM32F1xx_HAL_Driver/Src/stm32f1xx_hal_adc_ex.c ****       }
1158:Drivers/STM32F1xx_HAL_Driver/Src/stm32f1xx_hal_adc_ex.c ****     }
1159:Drivers/STM32F1xx_HAL_Driver/Src/stm32f1xx_hal_adc_ex.c **** 
1160:Drivers/STM32F1xx_HAL_Driver/Src/stm32f1xx_hal_adc_ex.c **** 
1161:Drivers/STM32F1xx_HAL_Driver/Src/stm32f1xx_hal_adc_ex.c ****   /* InjectedChannel sampling time configuration */
1162:Drivers/STM32F1xx_HAL_Driver/Src/stm32f1xx_hal_adc_ex.c ****   /* For channels 10 to 17 */
1163:Drivers/STM32F1xx_HAL_Driver/Src/stm32f1xx_hal_adc_ex.c ****   if (sConfigInjected->InjectedChannel >= ADC_CHANNEL_10)
 1469              		.loc 1 1163 0
 1470 00f0 0B68     		ldr	r3, [r1]
 1471 00f2 092B     		cmp	r3, #9
 1472 00f4 0DD9     		bls	.L133
1164:Drivers/STM32F1xx_HAL_Driver/Src/stm32f1xx_hal_adc_ex.c ****   {
1165:Drivers/STM32F1xx_HAL_Driver/Src/stm32f1xx_hal_adc_ex.c ****     MODIFY_REG(hadc->Instance->SMPR1                                                             ,
 1473              		.loc 1 1165 0
 1474 00f6 0768     		ldr	r7, [r0]
 1475 00f8 FE68     		ldr	r6, [r7, #12]
 1476 00fa 03EB4303 		add	r3, r3, r3, lsl #1
 1477 00fe 1E3B     		subs	r3, r3, #30
 1478 0100 0724     		movs	r4, #7
 1479 0102 9C40     		lsls	r4, r4, r3
 1480 0104 26EA0405 		bic	r5, r6, r4
 1481 0108 8C68     		ldr	r4, [r1, #8]
 1482 010a 9C40     		lsls	r4, r4, r3
 1483 010c 2C43     		orrs	r4, r4, r5
 1484 010e FC60     		str	r4, [r7, #12]
 1485 0110 0BE0     		b	.L134
 1486              	.L133:
1166:Drivers/STM32F1xx_HAL_Driver/Src/stm32f1xx_hal_adc_ex.c ****                ADC_SMPR1(ADC_SMPR1_SMP10, sConfigInjected->InjectedChannel)                      ,
1167:Drivers/STM32F1xx_HAL_Driver/Src/stm32f1xx_hal_adc_ex.c ****                ADC_SMPR1(sConfigInjected->InjectedSamplingTime, sConfigInjected->InjectedChannel) )
1168:Drivers/STM32F1xx_HAL_Driver/Src/stm32f1xx_hal_adc_ex.c ****   }
1169:Drivers/STM32F1xx_HAL_Driver/Src/stm32f1xx_hal_adc_ex.c ****   else /* For channels 0 to 9 */
1170:Drivers/STM32F1xx_HAL_Driver/Src/stm32f1xx_hal_adc_ex.c ****   {
1171:Drivers/STM32F1xx_HAL_Driver/Src/stm32f1xx_hal_adc_ex.c ****     MODIFY_REG(hadc->Instance->SMPR2                                                             ,
 1487              		.loc 1 1171 0
 1488 0112 0768     		ldr	r7, [r0]
 1489 0114 3E69     		ldr	r6, [r7, #16]
 1490 0116 03EB4303 		add	r3, r3, r3, lsl #1
 1491 011a 0724     		movs	r4, #7
 1492 011c 9C40     		lsls	r4, r4, r3
 1493 011e 26EA0405 		bic	r5, r6, r4
 1494 0122 8C68     		ldr	r4, [r1, #8]
 1495 0124 9C40     		lsls	r4, r4, r3
 1496 0126 2C43     		orrs	r4, r4, r5
 1497 0128 3C61     		str	r4, [r7, #16]
 1498              	.L134:
1172:Drivers/STM32F1xx_HAL_Driver/Src/stm32f1xx_hal_adc_ex.c ****                ADC_SMPR2(ADC_SMPR2_SMP0, sConfigInjected->InjectedChannel)                       ,
1173:Drivers/STM32F1xx_HAL_Driver/Src/stm32f1xx_hal_adc_ex.c ****                ADC_SMPR2(sConfigInjected->InjectedSamplingTime, sConfigInjected->InjectedChannel) )
1174:Drivers/STM32F1xx_HAL_Driver/Src/stm32f1xx_hal_adc_ex.c ****   }
1175:Drivers/STM32F1xx_HAL_Driver/Src/stm32f1xx_hal_adc_ex.c ****   
ARM GAS  /tmp/cc0wYaIi.s 			page 48


1176:Drivers/STM32F1xx_HAL_Driver/Src/stm32f1xx_hal_adc_ex.c ****   /* If ADC1 InjectedChannel_16 or InjectedChannel_17 is selected, enable Temperature sensor  */
1177:Drivers/STM32F1xx_HAL_Driver/Src/stm32f1xx_hal_adc_ex.c ****   /* and VREFINT measurement path.                                            */
1178:Drivers/STM32F1xx_HAL_Driver/Src/stm32f1xx_hal_adc_ex.c ****   if ((sConfigInjected->InjectedChannel == ADC_CHANNEL_TEMPSENSOR) ||
 1499              		.loc 1 1178 0
 1500 012a 0B68     		ldr	r3, [r1]
 1501 012c 103B     		subs	r3, r3, #16
 1502 012e 012B     		cmp	r3, #1
 1503 0130 04D8     		bhi	.L135
1179:Drivers/STM32F1xx_HAL_Driver/Src/stm32f1xx_hal_adc_ex.c ****       (sConfigInjected->InjectedChannel == ADC_CHANNEL_VREFINT)      )
1180:Drivers/STM32F1xx_HAL_Driver/Src/stm32f1xx_hal_adc_ex.c ****   {
1181:Drivers/STM32F1xx_HAL_Driver/Src/stm32f1xx_hal_adc_ex.c ****     SET_BIT(hadc->Instance->CR2, ADC_CR2_TSVREFE);
 1504              		.loc 1 1181 0
 1505 0132 0468     		ldr	r4, [r0]
 1506 0134 A368     		ldr	r3, [r4, #8]
 1507 0136 43F40003 		orr	r3, r3, #8388608
 1508 013a A360     		str	r3, [r4, #8]
 1509              	.L135:
1182:Drivers/STM32F1xx_HAL_Driver/Src/stm32f1xx_hal_adc_ex.c ****   }
1183:Drivers/STM32F1xx_HAL_Driver/Src/stm32f1xx_hal_adc_ex.c ****   
1184:Drivers/STM32F1xx_HAL_Driver/Src/stm32f1xx_hal_adc_ex.c ****   
1185:Drivers/STM32F1xx_HAL_Driver/Src/stm32f1xx_hal_adc_ex.c ****   /* Configure the offset: offset enable/disable, InjectedChannel, offset value */
1186:Drivers/STM32F1xx_HAL_Driver/Src/stm32f1xx_hal_adc_ex.c ****   switch(sConfigInjected->InjectedRank)
 1510              		.loc 1 1186 0
 1511 013c 4B68     		ldr	r3, [r1, #4]
 1512 013e 022B     		cmp	r3, #2
 1513 0140 0DD0     		beq	.L137
 1514 0142 032B     		cmp	r3, #3
 1515 0144 15D0     		beq	.L138
 1516 0146 012B     		cmp	r3, #1
 1517 0148 1DD1     		bne	.L146
1187:Drivers/STM32F1xx_HAL_Driver/Src/stm32f1xx_hal_adc_ex.c ****   {
1188:Drivers/STM32F1xx_HAL_Driver/Src/stm32f1xx_hal_adc_ex.c ****     case 1:
1189:Drivers/STM32F1xx_HAL_Driver/Src/stm32f1xx_hal_adc_ex.c ****       /* Set injected channel 1 offset */
1190:Drivers/STM32F1xx_HAL_Driver/Src/stm32f1xx_hal_adc_ex.c ****       MODIFY_REG(hadc->Instance->JOFR1,
 1518              		.loc 1 1190 0
 1519 014a 0568     		ldr	r5, [r0]
 1520 014c 6B69     		ldr	r3, [r5, #20]
 1521 014e 23F47F63 		bic	r3, r3, #4080
 1522 0152 23F00F03 		bic	r3, r3, #15
 1523 0156 CC68     		ldr	r4, [r1, #12]
 1524 0158 2343     		orrs	r3, r3, r4
 1525 015a 6B61     		str	r3, [r5, #20]
1191:Drivers/STM32F1xx_HAL_Driver/Src/stm32f1xx_hal_adc_ex.c ****                  ADC_JOFR1_JOFFSET1,
1192:Drivers/STM32F1xx_HAL_Driver/Src/stm32f1xx_hal_adc_ex.c ****                  sConfigInjected->InjectedOffset);
1193:Drivers/STM32F1xx_HAL_Driver/Src/stm32f1xx_hal_adc_ex.c ****       break;
 1526              		.loc 1 1193 0
 1527 015c 1CE0     		b	.L140
 1528              	.L137:
1194:Drivers/STM32F1xx_HAL_Driver/Src/stm32f1xx_hal_adc_ex.c ****     case 2:
1195:Drivers/STM32F1xx_HAL_Driver/Src/stm32f1xx_hal_adc_ex.c ****       /* Set injected channel 2 offset */
1196:Drivers/STM32F1xx_HAL_Driver/Src/stm32f1xx_hal_adc_ex.c ****       MODIFY_REG(hadc->Instance->JOFR2,
 1529              		.loc 1 1196 0
 1530 015e 0568     		ldr	r5, [r0]
 1531 0160 AB69     		ldr	r3, [r5, #24]
 1532 0162 23F47F63 		bic	r3, r3, #4080
 1533 0166 23F00F03 		bic	r3, r3, #15
 1534 016a CC68     		ldr	r4, [r1, #12]
ARM GAS  /tmp/cc0wYaIi.s 			page 49


 1535 016c 2343     		orrs	r3, r3, r4
 1536 016e AB61     		str	r3, [r5, #24]
1197:Drivers/STM32F1xx_HAL_Driver/Src/stm32f1xx_hal_adc_ex.c ****                  ADC_JOFR2_JOFFSET2,
1198:Drivers/STM32F1xx_HAL_Driver/Src/stm32f1xx_hal_adc_ex.c ****                  sConfigInjected->InjectedOffset);
1199:Drivers/STM32F1xx_HAL_Driver/Src/stm32f1xx_hal_adc_ex.c ****       break;
 1537              		.loc 1 1199 0
 1538 0170 12E0     		b	.L140
 1539              	.L138:
1200:Drivers/STM32F1xx_HAL_Driver/Src/stm32f1xx_hal_adc_ex.c ****     case 3:
1201:Drivers/STM32F1xx_HAL_Driver/Src/stm32f1xx_hal_adc_ex.c ****       /* Set injected channel 3 offset */
1202:Drivers/STM32F1xx_HAL_Driver/Src/stm32f1xx_hal_adc_ex.c ****       MODIFY_REG(hadc->Instance->JOFR3,
 1540              		.loc 1 1202 0
 1541 0172 0568     		ldr	r5, [r0]
 1542 0174 EB69     		ldr	r3, [r5, #28]
 1543 0176 23F47F63 		bic	r3, r3, #4080
 1544 017a 23F00F03 		bic	r3, r3, #15
 1545 017e CC68     		ldr	r4, [r1, #12]
 1546 0180 2343     		orrs	r3, r3, r4
 1547 0182 EB61     		str	r3, [r5, #28]
1203:Drivers/STM32F1xx_HAL_Driver/Src/stm32f1xx_hal_adc_ex.c ****                  ADC_JOFR3_JOFFSET3,
1204:Drivers/STM32F1xx_HAL_Driver/Src/stm32f1xx_hal_adc_ex.c ****                  sConfigInjected->InjectedOffset);
1205:Drivers/STM32F1xx_HAL_Driver/Src/stm32f1xx_hal_adc_ex.c ****       break;
 1548              		.loc 1 1205 0
 1549 0184 08E0     		b	.L140
 1550              	.L146:
1206:Drivers/STM32F1xx_HAL_Driver/Src/stm32f1xx_hal_adc_ex.c ****     case 4:
1207:Drivers/STM32F1xx_HAL_Driver/Src/stm32f1xx_hal_adc_ex.c ****     default:
1208:Drivers/STM32F1xx_HAL_Driver/Src/stm32f1xx_hal_adc_ex.c ****       MODIFY_REG(hadc->Instance->JOFR4,
 1551              		.loc 1 1208 0
 1552 0186 0568     		ldr	r5, [r0]
 1553 0188 2B6A     		ldr	r3, [r5, #32]
 1554 018a 23F47F63 		bic	r3, r3, #4080
 1555 018e 23F00F03 		bic	r3, r3, #15
 1556 0192 CC68     		ldr	r4, [r1, #12]
 1557 0194 2343     		orrs	r3, r3, r4
 1558 0196 2B62     		str	r3, [r5, #32]
 1559              	.L140:
1209:Drivers/STM32F1xx_HAL_Driver/Src/stm32f1xx_hal_adc_ex.c ****                  ADC_JOFR4_JOFFSET4,
1210:Drivers/STM32F1xx_HAL_Driver/Src/stm32f1xx_hal_adc_ex.c ****                  sConfigInjected->InjectedOffset);
1211:Drivers/STM32F1xx_HAL_Driver/Src/stm32f1xx_hal_adc_ex.c ****       break;
1212:Drivers/STM32F1xx_HAL_Driver/Src/stm32f1xx_hal_adc_ex.c ****   }
1213:Drivers/STM32F1xx_HAL_Driver/Src/stm32f1xx_hal_adc_ex.c ****   
1214:Drivers/STM32F1xx_HAL_Driver/Src/stm32f1xx_hal_adc_ex.c ****   /* If ADC1 Channel_16 or Channel_17 is selected, enable Temperature sensor  */
1215:Drivers/STM32F1xx_HAL_Driver/Src/stm32f1xx_hal_adc_ex.c ****   /* and VREFINT measurement path.                                            */
1216:Drivers/STM32F1xx_HAL_Driver/Src/stm32f1xx_hal_adc_ex.c ****   if ((sConfigInjected->InjectedChannel == ADC_CHANNEL_TEMPSENSOR) ||
 1560              		.loc 1 1216 0
 1561 0198 0B68     		ldr	r3, [r1]
 1562 019a 103B     		subs	r3, r3, #16
 1563 019c 012B     		cmp	r3, #1
 1564 019e 25D8     		bhi	.L141
1217:Drivers/STM32F1xx_HAL_Driver/Src/stm32f1xx_hal_adc_ex.c ****       (sConfigInjected->InjectedChannel == ADC_CHANNEL_VREFINT)      )
1218:Drivers/STM32F1xx_HAL_Driver/Src/stm32f1xx_hal_adc_ex.c ****   {
1219:Drivers/STM32F1xx_HAL_Driver/Src/stm32f1xx_hal_adc_ex.c ****     /* For STM32F1 devices with several ADC: Only ADC1 can access internal    */
1220:Drivers/STM32F1xx_HAL_Driver/Src/stm32f1xx_hal_adc_ex.c ****     /* measurement channels (VrefInt/TempSensor). If these channels are       */
1221:Drivers/STM32F1xx_HAL_Driver/Src/stm32f1xx_hal_adc_ex.c ****     /* intended to be set on other ADC instances, an error is reported.       */
1222:Drivers/STM32F1xx_HAL_Driver/Src/stm32f1xx_hal_adc_ex.c ****     if (hadc->Instance == ADC1)
 1565              		.loc 1 1222 0
ARM GAS  /tmp/cc0wYaIi.s 			page 50


 1566 01a0 0368     		ldr	r3, [r0]
 1567 01a2 174C     		ldr	r4, .L148
 1568 01a4 A342     		cmp	r3, r4
 1569 01a6 1CD1     		bne	.L142
1223:Drivers/STM32F1xx_HAL_Driver/Src/stm32f1xx_hal_adc_ex.c ****     {
1224:Drivers/STM32F1xx_HAL_Driver/Src/stm32f1xx_hal_adc_ex.c ****       if (READ_BIT(hadc->Instance->CR2, ADC_CR2_TSVREFE) == RESET)
 1570              		.loc 1 1224 0
 1571 01a8 9C68     		ldr	r4, [r3, #8]
 1572 01aa 14F4000F 		tst	r4, #8388608
 1573 01ae 1DD1     		bne	.L141
1225:Drivers/STM32F1xx_HAL_Driver/Src/stm32f1xx_hal_adc_ex.c ****       {
1226:Drivers/STM32F1xx_HAL_Driver/Src/stm32f1xx_hal_adc_ex.c ****         SET_BIT(hadc->Instance->CR2, ADC_CR2_TSVREFE);
 1574              		.loc 1 1226 0
 1575 01b0 9C68     		ldr	r4, [r3, #8]
 1576 01b2 44F40004 		orr	r4, r4, #8388608
 1577 01b6 9C60     		str	r4, [r3, #8]
1227:Drivers/STM32F1xx_HAL_Driver/Src/stm32f1xx_hal_adc_ex.c ****         
1228:Drivers/STM32F1xx_HAL_Driver/Src/stm32f1xx_hal_adc_ex.c ****         if ((sConfigInjected->InjectedChannel == ADC_CHANNEL_TEMPSENSOR))
 1578              		.loc 1 1228 0
 1579 01b8 0B68     		ldr	r3, [r1]
 1580 01ba 102B     		cmp	r3, #16
 1581 01bc 16D1     		bne	.L141
1229:Drivers/STM32F1xx_HAL_Driver/Src/stm32f1xx_hal_adc_ex.c ****         {
1230:Drivers/STM32F1xx_HAL_Driver/Src/stm32f1xx_hal_adc_ex.c ****           /* Delay for temperature sensor stabilization time */
1231:Drivers/STM32F1xx_HAL_Driver/Src/stm32f1xx_hal_adc_ex.c ****           /* Compute number of CPU cycles to wait for */
1232:Drivers/STM32F1xx_HAL_Driver/Src/stm32f1xx_hal_adc_ex.c ****           wait_loop_index = (ADC_TEMPSENSOR_DELAY_US * (SystemCoreClock / 1000000U));
 1582              		.loc 1 1232 0
 1583 01be 114B     		ldr	r3, .L148+4
 1584 01c0 1B68     		ldr	r3, [r3]
 1585 01c2 1149     		ldr	r1, .L148+8
 1586              	.LVL100:
 1587 01c4 A1FB0313 		umull	r1, r3, r1, r3
 1588 01c8 9B0C     		lsrs	r3, r3, #18
 1589 01ca 03EB8303 		add	r3, r3, r3, lsl #2
 1590 01ce 5B00     		lsls	r3, r3, #1
 1591 01d0 0193     		str	r3, [sp, #4]
1233:Drivers/STM32F1xx_HAL_Driver/Src/stm32f1xx_hal_adc_ex.c ****           while(wait_loop_index != 0U)
 1592              		.loc 1 1233 0
 1593 01d2 02E0     		b	.L143
 1594              	.L144:
1234:Drivers/STM32F1xx_HAL_Driver/Src/stm32f1xx_hal_adc_ex.c ****           {
1235:Drivers/STM32F1xx_HAL_Driver/Src/stm32f1xx_hal_adc_ex.c ****             wait_loop_index--;
 1595              		.loc 1 1235 0
 1596 01d4 019B     		ldr	r3, [sp, #4]
 1597 01d6 013B     		subs	r3, r3, #1
 1598 01d8 0193     		str	r3, [sp, #4]
 1599              	.L143:
1233:Drivers/STM32F1xx_HAL_Driver/Src/stm32f1xx_hal_adc_ex.c ****           while(wait_loop_index != 0U)
 1600              		.loc 1 1233 0
 1601 01da 019B     		ldr	r3, [sp, #4]
 1602 01dc 002B     		cmp	r3, #0
 1603 01de F9D1     		bne	.L144
 1604 01e0 04E0     		b	.L141
 1605              	.LVL101:
 1606              	.L142:
1236:Drivers/STM32F1xx_HAL_Driver/Src/stm32f1xx_hal_adc_ex.c ****           }
1237:Drivers/STM32F1xx_HAL_Driver/Src/stm32f1xx_hal_adc_ex.c ****         }
ARM GAS  /tmp/cc0wYaIi.s 			page 51


1238:Drivers/STM32F1xx_HAL_Driver/Src/stm32f1xx_hal_adc_ex.c ****       }
1239:Drivers/STM32F1xx_HAL_Driver/Src/stm32f1xx_hal_adc_ex.c ****     }
1240:Drivers/STM32F1xx_HAL_Driver/Src/stm32f1xx_hal_adc_ex.c ****     else
1241:Drivers/STM32F1xx_HAL_Driver/Src/stm32f1xx_hal_adc_ex.c ****     {
1242:Drivers/STM32F1xx_HAL_Driver/Src/stm32f1xx_hal_adc_ex.c ****       /* Update ADC state machine to error */
1243:Drivers/STM32F1xx_HAL_Driver/Src/stm32f1xx_hal_adc_ex.c ****       SET_BIT(hadc->State, HAL_ADC_STATE_ERROR_CONFIG);
 1607              		.loc 1 1243 0
 1608 01e2 836A     		ldr	r3, [r0, #40]
 1609 01e4 43F02003 		orr	r3, r3, #32
 1610 01e8 8362     		str	r3, [r0, #40]
 1611              	.LVL102:
1244:Drivers/STM32F1xx_HAL_Driver/Src/stm32f1xx_hal_adc_ex.c ****       
1245:Drivers/STM32F1xx_HAL_Driver/Src/stm32f1xx_hal_adc_ex.c ****       tmp_hal_status = HAL_ERROR;
 1612              		.loc 1 1245 0
 1613 01ea 0122     		movs	r2, #1
 1614              	.LVL103:
 1615              	.L141:
1246:Drivers/STM32F1xx_HAL_Driver/Src/stm32f1xx_hal_adc_ex.c ****     }
1247:Drivers/STM32F1xx_HAL_Driver/Src/stm32f1xx_hal_adc_ex.c ****   }
1248:Drivers/STM32F1xx_HAL_Driver/Src/stm32f1xx_hal_adc_ex.c ****   
1249:Drivers/STM32F1xx_HAL_Driver/Src/stm32f1xx_hal_adc_ex.c ****   /* Process unlocked */
1250:Drivers/STM32F1xx_HAL_Driver/Src/stm32f1xx_hal_adc_ex.c ****   __HAL_UNLOCK(hadc);
 1616              		.loc 1 1250 0
 1617 01ec 0023     		movs	r3, #0
 1618 01ee 80F82430 		strb	r3, [r0, #36]
1251:Drivers/STM32F1xx_HAL_Driver/Src/stm32f1xx_hal_adc_ex.c ****   
1252:Drivers/STM32F1xx_HAL_Driver/Src/stm32f1xx_hal_adc_ex.c ****   /* Return function status */
1253:Drivers/STM32F1xx_HAL_Driver/Src/stm32f1xx_hal_adc_ex.c ****   return tmp_hal_status;
 1619              		.loc 1 1253 0
 1620 01f2 1046     		mov	r0, r2
 1621              	.LVL104:
 1622 01f4 00E0     		b	.L123
 1623              	.LVL105:
 1624              	.L145:
1033:Drivers/STM32F1xx_HAL_Driver/Src/stm32f1xx_hal_adc_ex.c ****   
 1625              		.loc 1 1033 0
 1626 01f6 0220     		movs	r0, #2
 1627              	.LVL106:
 1628              	.L123:
1254:Drivers/STM32F1xx_HAL_Driver/Src/stm32f1xx_hal_adc_ex.c **** }
 1629              		.loc 1 1254 0
 1630 01f8 02B0     		add	sp, sp, #8
 1631              	.LCFI24:
 1632              		.cfi_def_cfa_offset 16
 1633              		@ sp needed
 1634 01fa F0BC     		pop	{r4, r5, r6, r7}
 1635              	.LCFI25:
 1636              		.cfi_restore 7
 1637              		.cfi_restore 6
 1638              		.cfi_restore 5
 1639              		.cfi_restore 4
 1640              		.cfi_def_cfa_offset 0
 1641 01fc 7047     		bx	lr
 1642              	.L149:
 1643 01fe 00BF     		.align	2
 1644              	.L148:
 1645 0200 00240140 		.word	1073816576
ARM GAS  /tmp/cc0wYaIi.s 			page 52


 1646 0204 00000000 		.word	SystemCoreClock
 1647 0208 83DE1B43 		.word	1125899907
 1648              		.cfi_endproc
 1649              	.LFE74:
 1651              		.section	.text.HAL_ADCEx_MultiModeConfigChannel,"ax",%progbits
 1652              		.align	2
 1653              		.global	HAL_ADCEx_MultiModeConfigChannel
 1654              		.thumb
 1655              		.thumb_func
 1657              	HAL_ADCEx_MultiModeConfigChannel:
 1658              	.LFB75:
1255:Drivers/STM32F1xx_HAL_Driver/Src/stm32f1xx_hal_adc_ex.c **** 
1256:Drivers/STM32F1xx_HAL_Driver/Src/stm32f1xx_hal_adc_ex.c **** #if defined (STM32F103x6) || defined (STM32F103xB) || defined (STM32F105xC) || defined (STM32F107xC
1257:Drivers/STM32F1xx_HAL_Driver/Src/stm32f1xx_hal_adc_ex.c **** /**
1258:Drivers/STM32F1xx_HAL_Driver/Src/stm32f1xx_hal_adc_ex.c ****   * @brief  Enable ADC multimode and configure multimode parameters
1259:Drivers/STM32F1xx_HAL_Driver/Src/stm32f1xx_hal_adc_ex.c ****   * @note   Possibility to update parameters on the fly:
1260:Drivers/STM32F1xx_HAL_Driver/Src/stm32f1xx_hal_adc_ex.c ****   *         This function initializes multimode parameters, following  
1261:Drivers/STM32F1xx_HAL_Driver/Src/stm32f1xx_hal_adc_ex.c ****   *         calls to this function can be used to reconfigure some parameters 
1262:Drivers/STM32F1xx_HAL_Driver/Src/stm32f1xx_hal_adc_ex.c ****   *         of structure "ADC_MultiModeTypeDef" on the fly, without reseting 
1263:Drivers/STM32F1xx_HAL_Driver/Src/stm32f1xx_hal_adc_ex.c ****   *         the ADCs (both ADCs of the common group).
1264:Drivers/STM32F1xx_HAL_Driver/Src/stm32f1xx_hal_adc_ex.c ****   *         The setting of these parameters is conditioned to ADC state.
1265:Drivers/STM32F1xx_HAL_Driver/Src/stm32f1xx_hal_adc_ex.c ****   *         For parameters constraints, see comments of structure 
1266:Drivers/STM32F1xx_HAL_Driver/Src/stm32f1xx_hal_adc_ex.c ****   *         "ADC_MultiModeTypeDef".
1267:Drivers/STM32F1xx_HAL_Driver/Src/stm32f1xx_hal_adc_ex.c ****   * @note   To change back configuration from multimode to single mode, ADC must
1268:Drivers/STM32F1xx_HAL_Driver/Src/stm32f1xx_hal_adc_ex.c ****   *         be reset (using function HAL_ADC_Init() ).
1269:Drivers/STM32F1xx_HAL_Driver/Src/stm32f1xx_hal_adc_ex.c ****   * @param  hadc: ADC handle
1270:Drivers/STM32F1xx_HAL_Driver/Src/stm32f1xx_hal_adc_ex.c ****   * @param  multimode: Structure of ADC multimode configuration
1271:Drivers/STM32F1xx_HAL_Driver/Src/stm32f1xx_hal_adc_ex.c ****   * @retval HAL status
1272:Drivers/STM32F1xx_HAL_Driver/Src/stm32f1xx_hal_adc_ex.c ****   */
1273:Drivers/STM32F1xx_HAL_Driver/Src/stm32f1xx_hal_adc_ex.c **** HAL_StatusTypeDef HAL_ADCEx_MultiModeConfigChannel(ADC_HandleTypeDef* hadc, ADC_MultiModeTypeDef* m
1274:Drivers/STM32F1xx_HAL_Driver/Src/stm32f1xx_hal_adc_ex.c **** {
 1659              		.loc 1 1274 0
 1660              		.cfi_startproc
 1661              		@ args = 0, pretend = 0, frame = 0
 1662              		@ frame_needed = 0, uses_anonymous_args = 0
 1663              		@ link register save eliminated.
 1664              	.LVL107:
1275:Drivers/STM32F1xx_HAL_Driver/Src/stm32f1xx_hal_adc_ex.c ****   HAL_StatusTypeDef tmp_hal_status = HAL_OK;
1276:Drivers/STM32F1xx_HAL_Driver/Src/stm32f1xx_hal_adc_ex.c ****   ADC_HandleTypeDef tmphadcSlave;
1277:Drivers/STM32F1xx_HAL_Driver/Src/stm32f1xx_hal_adc_ex.c ****   
1278:Drivers/STM32F1xx_HAL_Driver/Src/stm32f1xx_hal_adc_ex.c ****   /* Check the parameters */
1279:Drivers/STM32F1xx_HAL_Driver/Src/stm32f1xx_hal_adc_ex.c ****   assert_param(IS_ADC_MULTIMODE_MASTER_INSTANCE(hadc->Instance));
1280:Drivers/STM32F1xx_HAL_Driver/Src/stm32f1xx_hal_adc_ex.c ****   assert_param(IS_ADC_MODE(multimode->Mode));
1281:Drivers/STM32F1xx_HAL_Driver/Src/stm32f1xx_hal_adc_ex.c ****   
1282:Drivers/STM32F1xx_HAL_Driver/Src/stm32f1xx_hal_adc_ex.c ****   /* Process locked */
1283:Drivers/STM32F1xx_HAL_Driver/Src/stm32f1xx_hal_adc_ex.c ****   __HAL_LOCK(hadc);
 1665              		.loc 1 1283 0
 1666 0000 90F82430 		ldrb	r3, [r0, #36]	@ zero_extendqisi2
 1667 0004 012B     		cmp	r3, #1
 1668 0006 27D0     		beq	.L154
 1669              		.loc 1 1283 0 is_stmt 0 discriminator 2
 1670 0008 0123     		movs	r3, #1
 1671 000a 80F82430 		strb	r3, [r0, #36]
1284:Drivers/STM32F1xx_HAL_Driver/Src/stm32f1xx_hal_adc_ex.c ****   
1285:Drivers/STM32F1xx_HAL_Driver/Src/stm32f1xx_hal_adc_ex.c ****   /* Set a temporary handle of the ADC slave associated to the ADC master     */
1286:Drivers/STM32F1xx_HAL_Driver/Src/stm32f1xx_hal_adc_ex.c ****   ADC_MULTI_SLAVE(hadc, &tmphadcSlave);
1287:Drivers/STM32F1xx_HAL_Driver/Src/stm32f1xx_hal_adc_ex.c ****   
ARM GAS  /tmp/cc0wYaIi.s 			page 53


1288:Drivers/STM32F1xx_HAL_Driver/Src/stm32f1xx_hal_adc_ex.c ****   /* Parameters update conditioned to ADC state:                              */
1289:Drivers/STM32F1xx_HAL_Driver/Src/stm32f1xx_hal_adc_ex.c ****   /* Parameters that can be updated when ADC is disabled or enabled without   */
1290:Drivers/STM32F1xx_HAL_Driver/Src/stm32f1xx_hal_adc_ex.c ****   /* conversion on going on regular group:                                    */
1291:Drivers/STM32F1xx_HAL_Driver/Src/stm32f1xx_hal_adc_ex.c ****   /*  - ADC master and ADC slave DMA configuration                            */
1292:Drivers/STM32F1xx_HAL_Driver/Src/stm32f1xx_hal_adc_ex.c ****   /* Parameters that can be updated only when ADC is disabled:                */
1293:Drivers/STM32F1xx_HAL_Driver/Src/stm32f1xx_hal_adc_ex.c ****   /*  - Multimode mode selection                                              */
1294:Drivers/STM32F1xx_HAL_Driver/Src/stm32f1xx_hal_adc_ex.c ****   /* To optimize code, all multimode settings can be set when both ADCs of    */
1295:Drivers/STM32F1xx_HAL_Driver/Src/stm32f1xx_hal_adc_ex.c ****   /* the common group are in state: disabled.                                 */
1296:Drivers/STM32F1xx_HAL_Driver/Src/stm32f1xx_hal_adc_ex.c ****   if ((ADC_IS_ENABLE(hadc) == RESET)                     &&
 1672              		.loc 1 1296 0 is_stmt 1 discriminator 2
 1673 000e 0368     		ldr	r3, [r0]
 1674 0010 9A68     		ldr	r2, [r3, #8]
 1675 0012 12F0010F 		tst	r2, #1
 1676 0016 10D1     		bne	.L152
1297:Drivers/STM32F1xx_HAL_Driver/Src/stm32f1xx_hal_adc_ex.c ****       (ADC_IS_ENABLE(&tmphadcSlave) == RESET)            &&
 1677              		.loc 1 1297 0 discriminator 1
 1678 0018 124A     		ldr	r2, .L158
 1679 001a 9268     		ldr	r2, [r2, #8]
1296:Drivers/STM32F1xx_HAL_Driver/Src/stm32f1xx_hal_adc_ex.c ****       (ADC_IS_ENABLE(&tmphadcSlave) == RESET)            &&
 1680              		.loc 1 1296 0 discriminator 1
 1681 001c 12F0010F 		tst	r2, #1
 1682 0020 0BD1     		bne	.L152
 1683              		.loc 1 1297 0
 1684 0022 114A     		ldr	r2, .L158+4
 1685 0024 9342     		cmp	r3, r2
 1686 0026 08D1     		bne	.L152
1274:Drivers/STM32F1xx_HAL_Driver/Src/stm32f1xx_hal_adc_ex.c ****   HAL_StatusTypeDef tmp_hal_status = HAL_OK;
 1687              		.loc 1 1274 0
 1688 0028 10B4     		push	{r4}
 1689              	.LCFI26:
 1690              		.cfi_def_cfa_offset 4
 1691              		.cfi_offset 4, -4
1298:Drivers/STM32F1xx_HAL_Driver/Src/stm32f1xx_hal_adc_ex.c ****       (IS_ADC_MULTIMODE_MASTER_INSTANCE(hadc->Instance))   )
1299:Drivers/STM32F1xx_HAL_Driver/Src/stm32f1xx_hal_adc_ex.c ****   {
1300:Drivers/STM32F1xx_HAL_Driver/Src/stm32f1xx_hal_adc_ex.c ****     MODIFY_REG(hadc->Instance->CR1,
 1692              		.loc 1 1300 0
 1693 002a 5A68     		ldr	r2, [r3, #4]
 1694 002c 22F47024 		bic	r4, r2, #983040
 1695 0030 0A68     		ldr	r2, [r1]
 1696 0032 2243     		orrs	r2, r2, r4
 1697 0034 5A60     		str	r2, [r3, #4]
1275:Drivers/STM32F1xx_HAL_Driver/Src/stm32f1xx_hal_adc_ex.c ****   ADC_HandleTypeDef tmphadcSlave;
 1698              		.loc 1 1275 0
 1699 0036 0023     		movs	r3, #0
 1700              		.loc 1 1300 0
 1701 0038 09E0     		b	.L153
 1702              	.L152:
 1703              	.LCFI27:
 1704              		.cfi_def_cfa_offset 0
 1705              		.cfi_restore 4
1301:Drivers/STM32F1xx_HAL_Driver/Src/stm32f1xx_hal_adc_ex.c ****                ADC_CR1_DUALMOD    ,
1302:Drivers/STM32F1xx_HAL_Driver/Src/stm32f1xx_hal_adc_ex.c ****                multimode->Mode     );
1303:Drivers/STM32F1xx_HAL_Driver/Src/stm32f1xx_hal_adc_ex.c ****   }
1304:Drivers/STM32F1xx_HAL_Driver/Src/stm32f1xx_hal_adc_ex.c ****   /* If one of the ADC sharing the same common group is enabled, no update    */
1305:Drivers/STM32F1xx_HAL_Driver/Src/stm32f1xx_hal_adc_ex.c ****   /* could be done on neither of the multimode structure parameters.          */
1306:Drivers/STM32F1xx_HAL_Driver/Src/stm32f1xx_hal_adc_ex.c ****   else
1307:Drivers/STM32F1xx_HAL_Driver/Src/stm32f1xx_hal_adc_ex.c ****   {
ARM GAS  /tmp/cc0wYaIi.s 			page 54


1308:Drivers/STM32F1xx_HAL_Driver/Src/stm32f1xx_hal_adc_ex.c ****     /* Update ADC state machine to error */
1309:Drivers/STM32F1xx_HAL_Driver/Src/stm32f1xx_hal_adc_ex.c ****     SET_BIT(hadc->State, HAL_ADC_STATE_ERROR_CONFIG);
 1706              		.loc 1 1309 0
 1707 003a 836A     		ldr	r3, [r0, #40]
 1708 003c 43F02003 		orr	r3, r3, #32
 1709 0040 8362     		str	r3, [r0, #40]
 1710              	.LVL108:
1310:Drivers/STM32F1xx_HAL_Driver/Src/stm32f1xx_hal_adc_ex.c ****     
1311:Drivers/STM32F1xx_HAL_Driver/Src/stm32f1xx_hal_adc_ex.c ****     tmp_hal_status = HAL_ERROR;
 1711              		.loc 1 1311 0
 1712 0042 0123     		movs	r3, #1
 1713              	.LVL109:
1312:Drivers/STM32F1xx_HAL_Driver/Src/stm32f1xx_hal_adc_ex.c ****   }
1313:Drivers/STM32F1xx_HAL_Driver/Src/stm32f1xx_hal_adc_ex.c ****     
1314:Drivers/STM32F1xx_HAL_Driver/Src/stm32f1xx_hal_adc_ex.c ****     
1315:Drivers/STM32F1xx_HAL_Driver/Src/stm32f1xx_hal_adc_ex.c ****   /* Process unlocked */
1316:Drivers/STM32F1xx_HAL_Driver/Src/stm32f1xx_hal_adc_ex.c ****   __HAL_UNLOCK(hadc);
 1714              		.loc 1 1316 0
 1715 0044 0022     		movs	r2, #0
 1716 0046 80F82420 		strb	r2, [r0, #36]
1317:Drivers/STM32F1xx_HAL_Driver/Src/stm32f1xx_hal_adc_ex.c ****   
1318:Drivers/STM32F1xx_HAL_Driver/Src/stm32f1xx_hal_adc_ex.c ****   /* Return function status */
1319:Drivers/STM32F1xx_HAL_Driver/Src/stm32f1xx_hal_adc_ex.c ****   return tmp_hal_status;
 1717              		.loc 1 1319 0
 1718 004a 1846     		mov	r0, r3
 1719              	.LVL110:
1320:Drivers/STM32F1xx_HAL_Driver/Src/stm32f1xx_hal_adc_ex.c **** } 
 1720              		.loc 1 1320 0
 1721 004c 7047     		bx	lr
 1722              	.LVL111:
 1723              	.L153:
 1724              	.LCFI28:
 1725              		.cfi_def_cfa_offset 4
 1726              		.cfi_offset 4, -4
1316:Drivers/STM32F1xx_HAL_Driver/Src/stm32f1xx_hal_adc_ex.c ****   
 1727              		.loc 1 1316 0
 1728 004e 0022     		movs	r2, #0
 1729 0050 80F82420 		strb	r2, [r0, #36]
1319:Drivers/STM32F1xx_HAL_Driver/Src/stm32f1xx_hal_adc_ex.c **** } 
 1730              		.loc 1 1319 0
 1731 0054 1846     		mov	r0, r3
 1732              	.LVL112:
 1733 0056 01E0     		b	.L151
 1734              	.LVL113:
 1735              	.L154:
 1736              	.LCFI29:
 1737              		.cfi_def_cfa_offset 0
 1738              		.cfi_restore 4
1283:Drivers/STM32F1xx_HAL_Driver/Src/stm32f1xx_hal_adc_ex.c ****   
 1739              		.loc 1 1283 0
 1740 0058 0220     		movs	r0, #2
 1741              	.LVL114:
 1742 005a 7047     		bx	lr
 1743              	.LVL115:
 1744              	.L151:
 1745              	.LCFI30:
 1746              		.cfi_def_cfa_offset 4
ARM GAS  /tmp/cc0wYaIi.s 			page 55


 1747              		.cfi_offset 4, -4
 1748              		.loc 1 1320 0
 1749 005c 5DF8044B 		ldr	r4, [sp], #4
 1750              	.LCFI31:
 1751              		.cfi_restore 4
 1752              		.cfi_def_cfa_offset 0
 1753 0060 7047     		bx	lr
 1754              	.L159:
 1755 0062 00BF     		.align	2
 1756              	.L158:
 1757 0064 00280140 		.word	1073817600
 1758 0068 00240140 		.word	1073816576
 1759              		.cfi_endproc
 1760              	.LFE75:
 1762              		.text
 1763              	.Letext0:
 1764              		.file 2 "/usr/include/newlib/machine/_default_types.h"
 1765              		.file 3 "/usr/include/newlib/sys/_stdint.h"
 1766              		.file 4 "Drivers/CMSIS/Device/ST/STM32F1xx/Include/stm32f103xb.h"
 1767              		.file 5 "Drivers/CMSIS/Device/ST/STM32F1xx/Include/stm32f1xx.h"
 1768              		.file 6 "Drivers/STM32F1xx_HAL_Driver/Inc/stm32f1xx_hal_def.h"
 1769              		.file 7 "Drivers/STM32F1xx_HAL_Driver/Inc/stm32f1xx_hal_dma.h"
 1770              		.file 8 "Drivers/STM32F1xx_HAL_Driver/Inc/stm32f1xx_hal_adc.h"
 1771              		.file 9 "Drivers/STM32F1xx_HAL_Driver/Inc/stm32f1xx_hal_adc_ex.h"
 1772              		.file 10 "Drivers/CMSIS/Include/core_cm3.h"
 1773              		.file 11 "Drivers/CMSIS/Device/ST/STM32F1xx/Include/system_stm32f1xx.h"
 1774              		.file 12 "Drivers/STM32F1xx_HAL_Driver/Inc/stm32f1xx_hal_rcc_ex.h"
 1775              		.file 13 "Drivers/STM32F1xx_HAL_Driver/Inc/stm32f1xx_hal.h"
ARM GAS  /tmp/cc0wYaIi.s 			page 56

